(dp0
(I5
I5
I0
I1
I3
I1
I2
I2
tp1
I24
s(I5
I5
I0
I1
I0
I9
I1
I1
tp2
I18
s(I5
I2
I0
I3
I2
I1
I2
I2
tp3
I1
s(I5
I2
I0
I2
I0
I7
I2
I2
tp4
I2
s(I5
I5
I0
I2
I0
I6
I0
I0
tp5
I5
s(I5
I1
I0
I2
I2
I1
I2
I2
tp6
I3
s(I5
I1
I0
I2
I1
I9
I1
I1
tp7
I13
s(I5
I5
I0
I1
I1
I5
I3
I3
tp8
I4
s(I5
I1
I0
I0
I3
I8
I1
I1
tp9
I4
s(I5
I1
I0
I1
I3
I8
I3
I3
tp10
I3
s(I5
I2
I0
I0
I0
I7
I1
I1
tp11
I2
s(I5
I2
I0
I0
I1
I4
I2
I2
tp12
I1
s(I5
I5
I0
I2
I3
I0
I2
I2
tp13
I10
s(I5
I2
I0
I2
I3
I9
I2
I2
tp14
I1
s(I5
I1
I0
I2
I0
I5
I3
I3
tp15
I2
s(I5
I1
I0
I1
I3
I3
I2
I2
tp16
I5
s(I5
I5
I0
I3
I1
I1
I0
I0
tp17
I5
s(I5
I5
I0
I0
I1
I3
I0
I0
tp18
I8
s(I5
I5
I0
I1
I2
I9
I3
I3
tp19
I8
s(I5
I1
I0
I1
I0
I2
I1
I1
tp20
I14
s(I5
I5
I0
I3
I2
I0
I3
I3
tp21
I12
s(I5
I2
I0
I1
I2
I9
I0
I0
tp22
I4
s(I5
I2
I0
I0
I3
I0
I1
I1
tp23
I1
s(I5
I2
I0
I2
I3
I0
I1
I1
tp24
I1
s(I5
I2
I0
I3
I2
I7
I2
I2
tp25
I1
s(I5
I2
I0
I2
I0
I1
I2
I2
tp26
I2
s(I5
I1
I0
I2
I3
I9
I3
I3
tp27
I6
s(I5
I1
I0
I0
I2
I5
I2
I2
tp28
I7
s(I5
I5
I0
I0
I3
I3
I3
I3
tp29
I13
s(I5
I1
I0
I3
I0
I2
I2
I2
tp30
I3
s(I5
I1
I0
I3
I1
I8
I1
I1
tp31
I3
s(I5
I5
I0
I0
I2
I4
I0
I0
tp32
I6
s(I5
I1
I0
I3
I2
I2
I3
I3
tp33
I4
s(I5
I1
I0
I0
I0
I2
I1
I1
tp34
I4
s(I5
I5
I0
I2
I3
I6
I2
I2
tp35
I10
s(I5
I5
I0
I3
I0
I0
I1
I1
tp36
I12
s(I5
I5
I0
I1
I1
I2
I0
I0
tp37
I15
s(I5
I1
I0
I1
I3
I5
I2
I2
tp38
I5
s(I5
I2
I0
I1
I3
I8
I1
I1
tp39
I1
s(I5
I2
I0
I1
I2
I2
I2
I2
tp40
I1
s(I5
I2
I0
I3
I0
I3
I0
I0
tp41
I1
s(I5
I1
I0
I2
I0
I2
I0
I0
tp42
I1
s(I5
I5
I0
I2
I1
I6
I3
I3
tp43
I16
s(I5
I5
I0
I0
I1
I6
I1
I1
tp44
I13
s(I5
I1
I0
I3
I0
I9
I0
I0
tp45
I5
s(I5
I1
I0
I0
I2
I3
I2
I2
tp46
I7
s(I5
I5
I0
I2
I1
I1
I2
I2
tp47
I14
s(I5
I2
I0
I0
I0
I8
I1
I1
tp48
I2
s(I5
I2
I0
I2
I0
I4
I3
I3
tp49
I1
s(I5
I5
I0
I2
I0
I0
I1
I1
tp50
I11
s(I5
I5
I0
I0
I3
I6
I2
I2
tp51
I7
s(I5
I5
I0
I1
I3
I6
I2
I2
tp52
I23
s(I5
I1
I0
I3
I1
I5
I0
I0
tp53
I8
s(I5
I1
I0
I0
I1
I7
I0
I0
tp54
I1
s(I5
I5
I0
I0
I2
I1
I1
I1
tp55
I7
s(I5
I1
I0
I3
I2
I4
I3
I3
tp56
I4
s(I5
I2
I0
I1
I3
I7
I1
I1
tp57
I1
s(I5
I2
I0
I1
I2
I4
I2
I2
tp58
I1
s(I5
I1
I0
I2
I2
I6
I2
I2
tp59
I3
s(I5
I1
I0
I0
I3
I7
I3
I3
tp60
I4
s(I5
I5
I0
I3
I0
I7
I2
I2
tp61
I4
s(I5
I1
I0
I1
I0
I8
I0
I0
tp62
I1
s(I5
I2
I0
I0
I2
I4
I1
I1
tp63
I1
s(I5
I2
I0
I3
I0
I4
I3
I3
tp64
I2
s(I5
I2
I0
I3
I2
I9
I1
I1
tp65
I1
s(I5
I1
I0
I3
I3
I9
I0
I0
tp66
I3
s(I5
I5
I0
I2
I2
I9
I3
I3
tp67
I18
s(I5
I5
I0
I2
I1
I1
I0
I0
tp68
I3
s(I5
I5
I0
I3
I2
I7
I1
I1
tp69
I13
s(I5
I5
I0
I1
I2
I3
I1
I1
tp70
I22
s(I5
I1
I0
I3
I0
I4
I1
I1
tp71
I3
s(I5
I5
I0
I0
I3
I0
I2
I2
tp72
I7
s(I5
I5
I0
I1
I3
I0
I2
I2
tp73
I24
s(I5
I2
I0
I3
I2
I0
I2
I2
tp74
I1
s(I5
I2
I0
I2
I1
I7
I1
I1
tp75
I2
s(I5
I1
I0
I2
I3
I3
I1
I1
tp76
I1
s(I5
I5
I0
I2
I0
I5
I0
I0
tp77
I5
s(I5
I1
I0
I2
I2
I0
I2
I2
tp78
I3
s(I5
I1
I0
I0
I1
I2
I1
I1
tp79
I6
s(I5
I1
I0
I1
I2
I8
I2
I2
tp80
I2
s(I5
I5
I0
I1
I1
I4
I1
I1
tp81
I18
s(I5
I1
I0
I0
I3
I9
I3
I3
tp82
I4
s(I5
I5
I0
I3
I1
I9
I3
I3
tp83
I9
s(I5
I2
I0
I1
I3
I2
I0
I0
tp84
I1
s(I5
I2
I0
I0
I0
I4
I3
I3
tp85
I1
s(I5
I5
I0
I2
I3
I1
I2
I2
tp86
I10
s(I5
I2
I0
I2
I3
I8
I2
I2
tp87
I1
s(I5
I1
I0
I2
I0
I4
I1
I1
tp88
I9
s(I5
I1
I0
I0
I3
I2
I2
I2
tp89
I5
s(I5
I1
I0
I1
I3
I2
I2
I2
tp90
I5
s(I5
I5
I0
I3
I1
I0
I0
I0
tp91
I5
s(I5
I5
I0
I0
I1
I0
I0
I0
tp92
I8
s(I5
I2
I0
I1
I2
I8
I0
I0
tp93
I4
s(I5
I2
I0
I3
I2
I6
I2
I2
tp94
I1
s(I5
I5
I0
I2
I2
I3
I1
I1
tp95
I19
s(I5
I1
I0
I0
I2
I4
I2
I2
tp96
I7
s(I5
I5
I0
I3
I3
I4
I3
I3
tp97
I16
s(I5
I5
I0
I1
I2
I6
I0
I0
tp98
I10
s(I5
I1
I0
I3
I0
I3
I2
I2
tp99
I3
s(I5
I1
I0
I0
I1
I9
I1
I1
tp100
I6
s(I5
I1
I0
I1
I1
I3
I1
I1
tp101
I14
s(I5
I5
I0
I1
I3
I5
I3
I3
tp102
I4
s(I5
I2
I0
I1
I0
I4
I3
I3
tp103
I1
s(I5
I1
I0
I1
I0
I5
I1
I1
tp104
I14
s(I5
I2
I0
I0
I0
I2
I3
I3
tp105
I1
s(I5
I2
I0
I3
I1
I8
I0
I0
tp106
I3
s(I5
I1
I0
I2
I3
I6
I0
I0
tp107
I5
s(I5
I1
I0
I2
I2
I5
I3
I3
tp108
I5
s(I5
I1
I0
I3
I2
I3
I1
I1
tp109
I2
s(I5
I1
I0
I1
I2
I7
I1
I1
tp110
I6
s(I5
I5
I0
I1
I1
I1
I0
I0
tp111
I15
s(I5
I1
I0
I0
I3
I4
I2
I2
tp112
I5
s(I5
I1
I0
I1
I3
I4
I2
I2
tp113
I5
s(I5
I2
I0
I1
I1
I4
I1
I1
tp114
I1
s(I5
I2
I0
I3
I0
I2
I0
I0
tp115
I1
s(I5
I1
I0
I2
I0
I1
I0
I0
tp116
I1
s(I5
I5
I0
I2
I1
I7
I1
I1
tp117
I20
s(I5
I5
I0
I3
I1
I5
I1
I1
tp118
I15
s(I5
I5
I0
I0
I1
I7
I3
I3
tp119
I15
s(I5
I1
I0
I0
I2
I2
I2
I2
tp120
I7
s(I5
I2
I0
I1
I0
I2
I3
I3
tp121
I1
s(I5
I2
I0
I3
I3
I4
I0
I0
tp122
I1
s(I5
I2
I0
I2
I1
I9
I0
I0
tp123
I1
s(I5
I1
I0
I0
I2
I9
I3
I3
tp124
I4
s(I5
I5
I0
I3
I3
I1
I2
I2
tp125
I18
s(I5
I5
I0
I0
I3
I7
I2
I2
tp126
I7
s(I5
I1
I0
I3
I1
I4
I0
I0
tp127
I8
s(I5
I1
I0
I0
I1
I4
I0
I0
tp128
I1
s(I5
I5
I0
I1
I0
I0
I1
I1
tp129
I18
s(I5
I2
I0
I1
I3
I4
I3
I3
tp130
I2
s(I5
I2
I0
I2
I1
I0
I3
I3
tp131
I1
s(I5
I2
I0
I2
I3
I7
I1
I1
tp132
I1
s(I5
I1
I0
I2
I1
I0
I1
I1
tp133
I13
s(I5
I1
I0
I1
I2
I2
I0
I0
tp134
I12
s(I5
I1
I0
I1
I3
I1
I3
I3
tp135
I3
s(I5
I1
I0
I1
I0
I9
I0
I0
tp136
I1
s(I5
I5
I0
I0
I0
I9
I2
I2
tp137
I3
s(I5
I2
I0
I0
I3
I9
I2
I2
tp138
I1
s(I5
I2
I0
I2
I0
I8
I1
I1
tp139
I1
s(I5
I1
I0
I3
I3
I8
I0
I0
tp140
I3
s(I5
I5
I0
I2
I1
I2
I0
I0
tp141
I3
s(I5
I5
I0
I0
I0
I0
I1
I1
tp142
I7
s(I5
I5
I0
I1
I2
I0
I3
I3
tp143
I8
s(I5
I1
I0
I0
I2
I7
I3
I3
tp144
I4
s(I5
I5
I0
I3
I3
I7
I2
I2
tp145
I18
s(I5
I5
I0
I0
I3
I1
I2
I2
tp146
I7
s(I5
I5
I0
I2
I3
I1
I0
I0
tp147
I5
s(I5
I2
I0
I2
I1
I6
I3
I3
tp148
I1
s(I5
I1
I0
I2
I3
I0
I3
I3
tp149
I6
s(I5
I5
I0
I2
I0
I4
I0
I0
tp150
I5
s(I5
I1
I0
I3
I1
I1
I1
I1
tp151
I3
s(I5
I1
I0
I1
I2
I9
I2
I2
tp152
I2
s(I5
I1
I0
I1
I3
I7
I2
I2
tp153
I5
s(I5
I2
I0
I1
I3
I3
I0
I0
tp154
I1
s(I5
I2
I0
I0
I0
I5
I1
I1
tp155
I2
s(I5
I2
I0
I3
I0
I8
I1
I1
tp156
I2
s(I5
I5
I0
I0
I2
I9
I2
I2
tp157
I6
s(I5
I1
I0
I0
I3
I3
I2
I2
tp158
I5
s(I5
I5
I0
I2
I2
I5
I1
I1
tp159
I19
s(I5
I5
I0
I3
I1
I3
I0
I0
tp160
I5
s(I5
I5
I0
I0
I1
I1
I0
I0
tp161
I8
s(I5
I1
I0
I1
I0
I4
I1
I1
tp162
I14
s(I5
I2
I0
I0
I3
I6
I1
I1
tp163
I1
s(I5
I2
I0
I2
I3
I2
I1
I1
tp164
I1
s(I5
I5
I0
I2
I2
I0
I2
I2
tp165
I9
s(I5
I5
I0
I2
I0
I9
I2
I2
tp166
I3
s(I5
I5
I0
I0
I0
I5
I0
I0
tp167
I7
s(I5
I5
I0
I1
I2
I7
I0
I0
tp168
I10
s(I5
I5
I0
I0
I3
I4
I3
I3
tp169
I13
s(I5
I2
I0
I3
I1
I9
I0
I0
tp170
I3
s(I5
I2
I0
I2
I1
I3
I2
I2
tp171
I1
s(I5
I1
I0
I2
I3
I7
I0
I0
tp172
I5
s(I5
I1
I0
I1
I1
I9
I2
I2
tp173
I4
s(I5
I5
I0
I1
I0
I7
I3
I3
tp174
I3
s(I5
I1
I0
I0
I0
I4
I1
I1
tp175
I4
s(I5
I1
I0
I1
I2
I4
I3
I3
tp176
I2
s(I5
I5
I0
I1
I1
I0
I0
I0
tp177
I15
s(I5
I1
I0
I0
I3
I5
I2
I2
tp178
I5
s(I5
I2
I0
I0
I1
I2
I3
I3
tp179
I2
s(I5
I1
I0
I2
I1
I7
I3
I3
tp180
I4
s(I5
I1
I0
I2
I0
I0
I0
I0
tp181
I1
s(I5
I5
I0
I3
I1
I4
I3
I3
tp182
I9
s(I5
I5
I0
I0
I1
I4
I1
I1
tp183
I13
s(I5
I5
I0
I3
I3
I9
I1
I1
tp184
I4
s(I5
I5
I0
I1
I3
I9
I1
I1
tp185
I7
s(I5
I2
I0
I0
I3
I3
I0
I0
tp186
I2
s(I5
I2
I0
I3
I3
I5
I0
I0
tp187
I1
s(I5
I2
I0
I2
I1
I8
I0
I0
tp188
I1
s(I5
I1
I0
I0
I2
I8
I1
I1
tp189
I4
s(I5
I5
I0
I2
I1
I8
I2
I2
tp190
I14
s(I5
I5
I0
I3
I3
I0
I2
I2
tp191
I18
s(I5
I1
I0
I2
I2
I9
I1
I1
tp192
I4
s(I5
I1
I0
I3
I1
I7
I0
I0
tp193
I8
s(I5
I1
I0
I0
I1
I5
I0
I0
tp194
I1
s(I5
I1
I0
I1
I1
I7
I2
I2
tp195
I4
s(I5
I5
I0
I0
I2
I7
I1
I1
tp196
I7
s(I5
I5
I0
I1
I0
I1
I3
I3
tp197
I3
s(I5
I2
I0
I1
I3
I5
I1
I1
tp198
I1
s(I5
I5
I0
I2
I3
I5
I0
I0
tp199
I5
s(I5
I1
I0
I2
I1
I1
I3
I3
tp200
I4
s(I5
I1
I0
I0
I0
I1
I0
I0
tp201
I4
s(I5
I1
I0
I1
I2
I3
I0
I0
tp202
I12
s(I5
I1
I0
I0
I3
I0
I3
I3
tp203
I4
s(I5
I5
I0
I3
I2
I8
I2
I2
tp204
I6
s(I5
I5
I0
I0
I0
I8
I2
I2
tp205
I3
s(I5
I2
I0
I0
I1
I7
I2
I2
tp206
I1
s(I5
I2
I0
I1
I1
I0
I2
I2
tp207
I2
s(I5
I2
I0
I0
I2
I6
I1
I1
tp208
I1
s(I5
I2
I0
I0
I3
I8
I2
I2
tp209
I1
s(I5
I5
I0
I3
I0
I9
I1
I3
tp210
I1
s(I5
I5
I0
I2
I3
I8
I0
I0
tp211
I5
s(I5
I5
I0
I2
I2
I2
I3
I3
tp212
I18
s(I5
I2
I0
I2
I0
I9
I3
I3
tp213
I1
s(I5
I1
I0
I3
I3
I7
I0
I0
tp214
I3
s(I5
I1
I0
I1
I0
I3
I3
I3
tp215
I2
s(I5
I5
I0
I3
I2
I1
I1
I1
tp216
I13
s(I5
I5
I0
I0
I0
I3
I3
I3
tp217
I8
s(I5
I5
I0
I1
I2
I1
I1
I1
tp218
I23
s(I5
I5
I0
I3
I3
I6
I2
I2
tp219
I18
s(I5
I2
I0
I1
I1
I9
I1
I1
tp220
I1
s(I5
I2
I0
I2
I0
I2
I2
I2
tp221
I2
s(I5
I2
I0
I2
I1
I5
I1
I1
tp222
I2
s(I5
I1
I0
I2
I3
I1
I1
I1
tp223
I1
s(I5
I5
I0
I2
I0
I3
I0
I0
tp224
I5
s(I5
I1
I0
I3
I1
I0
I3
I3
tp225
I4
s(I5
I1
I0
I0
I1
I0
I1
I1
tp226
I6
s(I5
I5
I0
I3
I0
I8
I0
I0
tp227
I14
s(I5
I5
I0
I1
I0
I4
I2
I2
tp228
I5
s(I5
I2
I0
I1
I3
I0
I0
I0
tp229
I1
s(I5
I2
I0
I0
I1
I1
I2
I2
tp230
I1
s(I5
I2
I0
I0
I2
I9
I1
I1
tp231
I1
s(I5
I5
I0
I3
I0
I1
I3
I3
tp232
I11
s(I5
I1
I0
I2
I1
I4
I2
I2
tp233
I6
s(I5
I5
I0
I2
I2
I4
I3
I3
tp234
I18
s(I5
I5
I0
I3
I1
I2
I0
I0
tp235
I5
s(I5
I2
I0
I1
I3
I9
I3
I3
tp236
I2
s(I5
I1
I0
I1
I0
I5
I3
I3
tp237
I2
s(I5
I2
I0
I0
I3
I5
I3
I3
tp238
I1
s(I5
I5
I0
I2
I0
I8
I2
I2
tp239
I3
s(I5
I5
I0
I3
I2
I4
I0
I0
tp240
I3
s(I5
I5
I0
I0
I0
I4
I0
I0
tp241
I7
s(I5
I5
I0
I1
I2
I4
I0
I0
tp242
I10
s(I5
I1
I0
I1
I1
I1
I1
I1
tp243
I14
s(I5
I5
I0
I3
I3
I3
I3
I3
tp244
I16
s(I5
I5
I0
I0
I2
I9
I0
I0
tp245
I6
s(I5
I2
I0
I0
I0
I9
I3
I3
tp246
I1
s(I5
I2
I0
I2
I0
I5
I1
I1
tp247
I1
s(I5
I2
I0
I2
I1
I2
I2
I2
tp248
I1
s(I5
I1
I0
I2
I3
I4
I0
I0
tp249
I5
s(I5
I1
I0
I1
I1
I8
I2
I2
tp250
I4
s(I5
I5
I0
I0
I2
I0
I3
I3
tp251
I8
s(I5
I1
I0
I3
I2
I5
I1
I1
tp252
I2
s(I5
I1
I0
I0
I0
I7
I3
I3
tp253
I10
s(I5
I1
I0
I1
I2
I5
I1
I1
tp254
I6
s(I5
I5
I0
I1
I1
I7
I0
I0
tp255
I15
s(I5
I2
I0
I1
I2
I7
I2
I2
tp256
I1
s(I5
I2
I0
I1
I1
I6
I1
I1
tp257
I1
s(I5
I5
I0
I3
I0
I4
I2
I2
tp258
I4
s(I5
I1
I0
I2
I0
I7
I0
I0
tp259
I1
s(I5
I1
I0
I3
I3
I1
I3
I3
tp260
I5
s(I5
I5
I0
I2
I2
I1
I2
I2
tp261
I9
s(I5
I5
I0
I3
I1
I7
I1
I1
tp262
I15
s(I5
I1
I0
I1
I0
I0
I2
I2
tp263
I5
s(I5
I5
I0
I0
I3
I8
I1
I1
tp264
I5
s(I5
I5
I0
I1
I3
I8
I3
I3
tp265
I4
s(I5
I1
I0
I1
I0
I0
I0
I0
tp266
I1
s(I5
I2
I0
I0
I3
I2
I0
I0
tp267
I2
s(I5
I2
I0
I3
I3
I6
I0
I0
tp268
I1
s(I5
I5
I0
I2
I2
I8
I1
I1
tp269
I19
s(I5
I1
I0
I3
I0
I5
I3
I3
tp270
I4
s(I5
I5
I0
I2
I1
I9
I2
I2
tp271
I14
s(I5
I1
I0
I2
I2
I8
I3
I3
tp272
I5
s(I5
I5
I0
I1
I3
I3
I2
I2
tp273
I24
s(I5
I1
I0
I3
I1
I6
I0
I0
tp274
I8
s(I5
I1
I0
I1
I1
I6
I2
I2
tp275
I4
s(I5
I5
I0
I0
I2
I6
I3
I3
tp276
I8
s(I5
I5
I0
I1
I0
I2
I1
I1
tp277
I18
s(I5
I1
I0
I0
I0
I9
I3
I3
tp278
I10
s(I5
I1
I0
I2
I2
I3
I2
I2
tp279
I3
s(I5
I1
I0
I2
I1
I2
I1
I1
tp280
I13
s(I5
I1
I0
I3
I2
I0
I0
I0
tp281
I2
s(I5
I1
I0
I0
I0
I0
I0
I0
tp282
I4
s(I5
I1
I0
I1
I2
I0
I0
I0
tp283
I12
s(I5
I5
I0
I3
I0
I2
I2
I2
tp284
I4
s(I5
I5
I0
I3
I1
I8
I1
I1
tp285
I15
s(I5
I5
I0
I0
I1
I8
I3
I3
tp286
I15
s(I5
I5
I0
I3
I2
I9
I2
I2
tp287
I6
s(I5
I2
I0
I1
I2
I0
I1
I1
tp288
I1
s(I5
I2
I0
I0
I1
I6
I2
I2
tp289
I1
s(I5
I2
I0
I1
I1
I1
I2
I2
tp290
I2
s(I5
I2
I0
I3
I0
I1
I1
I1
tp291
I2
s(I5
I5
I0
I2
I3
I9
I0
I0
tp292
I5
s(I5
I1
I0
I3
I3
I6
I0
I0
tp293
I3
s(I5
I5
I0
I2
I1
I4
I0
I0
tp294
I3
s(I5
I5
I0
I3
I2
I2
I3
I3
tp295
I12
s(I5
I5
I0
I0
I0
I2
I1
I1
tp296
I7
s(I5
I2
I0
I3
I2
I5
I2
I2
tp297
I1
s(I5
I2
I0
I2
I0
I3
I2
I2
tp298
I2
s(I5
I1
I0
I3
I0
I0
I2
I2
tp299
I3
s(I5
I5
I0
I2
I0
I2
I0
I0
tp300
I5
s(I5
I5
I0
I1
I3
I4
I1
I1
tp301
I7
s(I5
I1
I0
I3
I1
I3
I1
I1
tp302
I3
s(I5
I5
I0
I3
I0
I9
I0
I0
tp303
I13
s(I5
I5
I0
I0
I2
I3
I2
I2
tp304
I6
s(I5
I5
I0
I1
I0
I5
I2
I2
tp305
I5
s(I5
I5
I0
I1
I1
I9
I3
I3
tp306
I4
s(I5
I2
I0
I1
I3
I1
I0
I0
tp307
I1
s(I5
I2
I0
I0
I0
I3
I1
I1
tp308
I2
s(I5
I2
I0
I0
I1
I0
I2
I2
tp309
I1
s(I5
I1
I0
I2
I2
I4
I1
I1
tp310
I4
s(I5
I5
I0
I2
I3
I4
I2
I2
tp311
I10
s(I5
I1
I0
I2
I1
I5
I2
I2
tp312
I6
s(I5
I1
I0
I2
I0
I9
I3
I3
tp313
I2
s(I5
I5
I0
I2
I2
I7
I1
I1
tp314
I19
s(I5
I1
I0
I1
I0
I6
I1
I1
tp315
I14
s(I5
I2
I0
I0
I3
I4
I1
I1
tp316
I1
s(I5
I2
I0
I2
I2
I6
I2
I2
tp317
I1
s(I5
I1
I0
I0
I2
I1
I2
I2
tp318
I7
s(I5
I5
I0
I3
I2
I5
I0
I0
tp319
I3
s(I5
I5
I0
I0
I0
I7
I0
I0
tp320
I7
s(I5
I5
I0
I1
I2
I5
I0
I0
tp321
I10
s(I5
I1
I0
I3
I0
I6
I2
I2
tp322
I3
s(I5
I5
I0
I0
I2
I8
I0
I0
tp323
I6
s(I5
I5
I0
I1
I0
I8
I0
I0
tp324
I7
s(I5
I2
I0
I3
I2
I2
I1
I1
tp325
I1
s(I5
I2
I0
I2
I0
I6
I3
I3
tp326
I1
s(I5
I5
I0
I0
I2
I6
I1
I1
tp327
I7
s(I5
I1
I0
I2
I3
I5
I0
I0
tp328
I5
s(I5
I1
I0
I1
I0
I4
I0
I0
tp329
I1
s(I5
I5
I0
I2
I0
I7
I1
I1
tp330
I12
s(I5
I1
I0
I2
I1
I8
I0
I0
tp331
I2
s(I5
I1
I0
I3
I2
I6
I3
I3
tp332
I4
s(I5
I1
I0
I0
I0
I6
I1
I1
tp333
I4
s(I5
I5
I0
I1
I1
I6
I0
I0
tp334
I15
s(I5
I1
I0
I1
I3
I9
I2
I2
tp335
I5
s(I5
I2
I0
I1
I2
I6
I2
I2
tp336
I1
s(I5
I2
I0
I0
I0
I6
I0
I0
tp337
I1
s(I5
I2
I0
I0
I1
I5
I3
I3
tp338
I2
s(I5
I5
I0
I0
I1
I2
I0
I3
tp339
I1
s(I5
I5
I0
I2
I3
I3
I1
I1
tp340
I3
s(I5
I5
I0
I3
I0
I5
I2
I2
tp341
I4
s(I5
I1
I0
I2
I0
I6
I0
I0
tp342
I1
s(I5
I1
I0
I1
I3
I0
I1
I1
tp343
I2
s(I5
I5
I0
I0
I1
I2
I1
I1
tp344
I13
s(I5
I5
I0
I1
I2
I8
I2
I2
tp345
I15
s(I5
I1
I0
I1
I0
I1
I2
I2
tp346
I5
s(I5
I5
I0
I0
I3
I9
I3
I3
tp347
I13
s(I5
I2
I0
I3
I0
I6
I3
I3
tp348
I2
s(I5
I2
I0
I0
I3
I1
I0
I0
tp349
I2
s(I5
I2
I0
I3
I3
I7
I0
I0
tp350
I1
s(I5
I2
I0
I2
I0
I0
I3
I3
tp351
I1
s(I5
I1
I0
I2
I3
I8
I2
I2
tp352
I1
s(I5
I1
I0
I0
I2
I6
I1
I1
tp353
I4
s(I5
I5
I0
I0
I3
I2
I2
I2
tp354
I7
s(I5
I5
I0
I1
I3
I2
I2
I2
tp355
I24
s(I5
I1
I0
I3
I1
I9
I0
I0
tp356
I8
s(I5
I5
I0
I0
I2
I5
I1
I1
tp357
I6
s(I5
I1
I0
I3
I2
I8
I3
I3
tp358
I4
s(I5
I1
I0
I2
I2
I2
I2
I2
tp359
I3
s(I5
I1
I0
I3
I2
I1
I0
I0
tp360
I2
s(I5
I1
I0
I0
I0
I3
I0
I0
tp361
I4
s(I5
I1
I0
I1
I2
I1
I0
I0
tp362
I12
s(I5
I5
I0
I3
I0
I3
I2
I2
tp363
I4
s(I5
I5
I0
I0
I1
I9
I1
I1
tp364
I13
s(I5
I5
I0
I1
I1
I3
I1
I1
tp365
I18
s(I5
I2
I0
I0
I2
I0
I1
I1
tp366
I1
s(I5
I2
I0
I3
I0
I0
I3
I3
tp367
I2
s(I5
I1
I0
I2
I0
I3
I1
I1
tp368
I9
s(I5
I1
I0
I3
I3
I5
I0
I0
tp369
I3
s(I5
I5
I0
I2
I1
I5
I0
I0
tp370
I3
s(I5
I5
I0
I3
I2
I3
I1
I1
tp371
I13
s(I5
I1
I0
I3
I0
I8
I1
I1
tp372
I3
s(I5
I2
I0
I3
I2
I4
I2
I2
tp373
I1
s(I5
I1
I0
I1
I2
I0
I2
I2
tp374
I2
s(I5
I1
I0
I3
I0
I1
I2
I2
tp375
I3
s(I5
I5
I0
I2
I0
I1
I0
I0
tp376
I5
s(I5
I5
I0
I0
I3
I5
I1
I1
tp377
I5
s(I5
I5
I0
I1
I3
I7
I3
I3
tp378
I4
s(I5
I1
I0
I0
I1
I6
I1
I1
tp379
I6
s(I5
I5
I0
I0
I2
I2
I2
I2
tp380
I6
s(I5
I5
I0
I1
I1
I8
I1
I1
tp381
I18
s(I5
I5
I0
I2
I2
I4
I2
I2
tp382
I9
s(I5
I2
I0
I1
I3
I6
I0
I0
tp383
I1
s(I5
I2
I0
I0
I0
I0
I3
I3
tp384
I1
s(I5
I1
I0
I2
I2
I7
I3
I3
tp385
I5
s(I5
I5
I0
I2
I3
I5
I2
I2
tp386
I10
s(I5
I1
I0
I2
I0
I8
I1
I1
tp387
I9
s(I5
I1
I0
I0
I3
I6
I2
I2
tp388
I5
s(I5
I1
I0
I1
I3
I6
I2
I2
tp389
I5
s(I5
I5
I0
I3
I0
I6
I3
I3
tp390
I11
s(I5
I2
I0
I2
I2
I7
I2
I2
tp391
I1
s(I5
I5
I0
I0
I1
I5
I3
I3
tp392
I15
s(I5
I1
I0
I0
I2
I0
I2
I2
tp393
I7
s(I5
I5
I0
I2
I1
I0
I1
I1
tp394
I20
s(I5
I5
I0
I3
I2
I6
I0
I0
tp395
I3
s(I5
I5
I0
I3
I3
I8
I3
I3
tp396
I16
s(I5
I5
I0
I1
I2
I2
I0
I0
tp397
I10
s(I5
I1
I0
I3
I0
I7
I2
I2
tp398
I3
s(I5
I5
I0
I1
I3
I1
I3
I3
tp399
I4
s(I5
I5
I0
I1
I0
I9
I0
I0
tp400
I7
s(I5
I2
I0
I1
I0
I0
I3
I3
tp401
I1
s(I5
I2
I0
I2
I0
I7
I1
I1
tp402
I1
s(I5
I1
I0
I2
I3
I2
I0
I0
tp403
I5
s(I5
I5
I0
I2
I0
I6
I3
I3
tp404
I11
s(I5
I1
I0
I2
I2
I1
I3
I3
tp405
I5
s(I5
I1
I0
I2
I1
I9
I0
I0
tp406
I2
s(I5
I1
I0
I3
I2
I7
I1
I1
tp407
I2
s(I5
I5
I0
I1
I1
I5
I0
I0
tp408
I15
s(I5
I1
I0
I0
I3
I8
I2
I2
tp409
I5
s(I5
I1
I0
I1
I3
I8
I2
I2
tp410
I5
s(I5
I2
I0
I0
I0
I7
I0
I0
tp411
I1
s(I5
I1
I0
I2
I2
I8
I0
I0
tp412
I3
s(I5
I5
I0
I2
I3
I0
I3
I3
tp413
I14
s(I5
I1
I0
I2
I0
I5
I0
I0
tp414
I1
s(I5
I1
I0
I0
I3
I1
I1
I1
tp415
I4
s(I5
I1
I0
I1
I3
I3
I3
I3
tp416
I3
s(I5
I5
I0
I3
I1
I1
I1
I1
tp417
I15
s(I5
I5
I0
I0
I1
I3
I3
I3
tp418
I15
s(I5
I5
I0
I1
I2
I9
I2
I2
tp419
I15
s(I5
I2
I0
I1
I2
I9
I1
I1
tp420
I1
s(I5
I2
I0
I0
I3
I0
I0
I0
tp421
I2
s(I5
I2
I0
I3
I3
I0
I0
I0
tp422
I1
s(I5
I1
I0
I2
I3
I9
I2
I2
tp423
I1
s(I5
I1
I0
I0
I2
I5
I3
I3
tp424
I4
s(I5
I5
I0
I3
I3
I5
I2
I2
tp425
I17
s(I5
I5
I0
I0
I3
I3
I2
I2
tp426
I7
s(I5
I1
I0
I3
I0
I2
I3
I3
tp427
I4
s(I5
I1
I0
I3
I1
I8
I0
I0
tp428
I8
s(I5
I1
I0
I0
I1
I8
I0
I0
tp429
I1
s(I5
I2
I0
I2
I1
I4
I3
I3
tp430
I1
s(I5
I1
I0
I2
I3
I9
I0
I0
tp431
I5
s(I5
I5
I0
I2
I1
I9
I1
I2
tp432
I1
s(I5
I1
I0
I3
I2
I2
I0
I0
tp433
I2
s(I5
I1
I0
I0
I0
I2
I0
I0
tp434
I4
s(I5
I1
I0
I1
I2
I6
I0
I0
tp435
I12
s(I5
I5
I0
I1
I1
I2
I3
I3
tp436
I4
s(I5
I1
I0
I1
I3
I5
I3
I3
tp437
I3
s(I5
I2
I0
I1
I2
I2
I1
I1
tp438
I1
s(I5
I2
I0
I3
I0
I3
I1
I1
tp439
I2
s(I5
I1
I0
I2
I0
I2
I3
I3
tp440
I2
s(I5
I1
I0
I3
I3
I4
I0
I0
tp441
I3
s(I5
I5
I0
I2
I1
I6
I0
I0
tp442
I3
s(I5
I5
I0
I0
I1
I6
I2
I2
tp443
I5
s(I5
I1
I0
I0
I2
I3
I3
I3
tp444
I4
s(I5
I2
I0
I2
I3
I5
I1
I1
tp445
I1
s(I5
I5
I0
I2
I0
I0
I0
I0
tp446
I5
s(I5
I5
I0
I3
I3
I2
I1
I1
tp447
I4
s(I5
I5
I0
I0
I3
I6
I3
I3
tp448
I13
s(I5
I5
I0
I1
I3
I6
I1
I1
tp449
I7
s(I5
I1
I0
I3
I1
I5
I1
I1
tp450
I3
s(I5
I2
I0
I1
I3
I7
I0
I0
tp451
I1
s(I5
I2
I0
I0
I0
I1
I1
I1
tp452
I2
s(I5
I2
I0
I2
I1
I1
I2
I2
tp453
I1
s(I5
I1
I0
I2
I2
I6
I1
I1
tp454
I4
s(I5
I1
I0
I0
I3
I7
I2
I2
tp455
I5
s(I5
I1
I0
I1
I0
I8
I1
I1
tp456
I14
s(I5
I2
I0
I0
I2
I4
I2
I2
tp457
I2
s(I5
I5
I0
I3
I1
I6
I3
I3
tp458
I9
s(I5
I5
I0
I2
I1
I1
I3
I3
tp459
I16
s(I5
I5
I0
I3
I2
I7
I0
I0
tp460
I3
s(I5
I5
I0
I0
I0
I1
I0
I0
tp461
I7
s(I5
I5
I0
I1
I2
I3
I0
I0
tp462
I10
s(I5
I5
I0
I0
I3
I0
I3
I3
tp463
I13
s(I5
I2
I0
I3
I2
I0
I1
I1
tp464
I1
s(I5
I2
I0
I2
I1
I7
I2
I2
tp465
I1
s(I5
I1
I0
I2
I3
I3
I0
I0
tp466
I5
s(I5
I1
I0
I1
I1
I5
I2
I2
tp467
I4
s(I5
I5
I0
I1
I0
I3
I3
I3
tp468
I3
s(I5
I1
I0
I0
I1
I2
I2
I2
tp469
I11
s(I5
I1
I0
I0
I0
I8
I1
I1
tp470
I4
s(I5
I1
I0
I1
I2
I8
I3
I3
tp471
I2
s(I5
I5
I0
I1
I1
I4
I0
I0
tp472
I15
s(I5
I1
I0
I0
I3
I9
I2
I2
tp473
I5
s(I5
I2
I0
I1
I3
I2
I1
I1
tp474
I1
s(I5
I2
I0
I0
I0
I4
I0
I0
tp475
I1
s(I5
I2
I0
I3
I0
I9
I0
I0
tp476
I1
s(I5
I1
I0
I2
I1
I3
I3
I3
tp477
I4
s(I5
I5
I0
I2
I3
I1
I1
I1
tp478
I3
s(I5
I1
I0
I2
I0
I4
I0
I0
tp479
I1
s(I5
I1
I0
I0
I3
I2
I3
I3
tp480
I4
s(I5
I1
I0
I1
I3
I2
I1
I1
tp481
I2
s(I5
I5
I0
I3
I1
I0
I3
I3
tp482
I9
s(I5
I5
I0
I0
I1
I0
I1
I1
tp483
I13
s(I5
I2
I0
I1
I1
I2
I2
I2
tp484
I2
s(I5
I2
I0
I0
I3
I7
I0
I0
tp485
I2
s(I5
I2
I0
I3
I3
I1
I0
I0
tp486
I1
s(I5
I1
I0
I0
I2
I4
I1
I1
tp487
I4
s(I5
I5
I0
I3
I3
I4
I2
I2
tp488
I18
s(I5
I5
I0
I1
I2
I6
I1
I1
tp489
I23
s(I5
I1
I0
I0
I1
I9
I0
I0
tp490
I1
s(I5
I1
I0
I1
I1
I3
I2
I2
tp491
I4
s(I5
I2
I0
I0
I1
I8
I3
I3
tp492
I2
s(I5
I1
I0
I2
I3
I6
I1
I1
tp493
I1
s(I5
I1
I0
I3
I1
I2
I3
I3
tp494
I4
s(I5
I5
I0
I1
I0
I6
I2
I2
tp495
I5
s(I5
I1
I0
I3
I2
I3
I0
I0
tp496
I2
s(I5
I1
I0
I0
I0
I5
I0
I0
tp497
I4
s(I5
I1
I0
I1
I2
I7
I0
I0
tp498
I12
s(I5
I5
I0
I1
I1
I1
I1
I1
tp499
I18
s(I5
I1
I0
I0
I3
I4
I3
I3
tp500
I4
s(I5
I2
I0
I0
I1
I3
I2
I2
tp501
I1
s(I5
I2
I0
I1
I1
I4
I2
I2
tp502
I1
s(I5
I2
I0
I0
I2
I2
I1
I1
tp503
I1
s(I5
I1
I0
I2
I1
I6
I2
I2
tp504
I6
s(I5
I5
I0
I2
I2
I6
I3
I3
tp505
I18
s(I5
I5
I0
I3
I3
I5
I0
I3
tp506
I1
s(I5
I1
I0
I2
I0
I1
I1
I1
tp507
I9
s(I5
I1
I0
I3
I3
I3
I0
I0
tp508
I3
s(I5
I1
I0
I1
I0
I7
I3
I3
tp509
I2
s(I5
I5
I0
I3
I1
I5
I2
I2
tp510
I17
s(I5
I5
I0
I0
I1
I7
I2
I2
tp511
I5
s(I5
I2
I0
I2
I1
I9
I1
I1
tp512
I2
s(I5
I1
I0
I0
I2
I9
I0
I0
tp513
I5
s(I5
I5
I0
I3
I3
I1
I3
I3
tp514
I16
s(I5
I5
I0
I0
I3
I7
I1
I1
tp515
I5
s(I5
I1
I0
I3
I1
I4
I3
I3
tp516
I4
s(I5
I1
I0
I0
I1
I4
I1
I1
tp517
I6
s(I5
I5
I0
I1
I0
I0
I2
I2
tp518
I5
s(I5
I2
I0
I1
I3
I4
I0
I0
tp519
I1
s(I5
I2
I0
I2
I1
I0
I2
I2
tp520
I1
s(I5
I1
I0
I2
I1
I0
I2
I2
tp521
I6
s(I5
I1
I0
I1
I2
I2
I1
I1
tp522
I6
s(I5
I1
I0
I1
I0
I9
I3
I3
tp523
I2
s(I5
I5
I0
I0
I0
I9
I3
I3
tp524
I8
s(I5
I2
I0
I0
I2
I5
I2
I2
tp525
I2
s(I5
I2
I0
I0
I3
I9
I3
I3
tp526
I1
s(I5
I5
I0
I2
I2
I3
I2
I2
tp527
I9
s(I5
I2
I0
I2
I0
I8
I2
I2
tp528
I2
s(I5
I1
I0
I1
I0
I2
I2
I2
tp529
I5
s(I5
I5
I0
I3
I2
I0
I0
I0
tp530
I3
s(I5
I5
I0
I0
I0
I0
I0
I0
tp531
I7
s(I5
I5
I0
I1
I2
I0
I0
I0
tp532
I10
s(I5
I5
I0
I3
I3
I7
I3
I3
tp533
I16
s(I5
I5
I0
I2
I2
I1
I3
I3
tp534
I18
s(I5
I2
I0
I1
I0
I7
I3
I3
tp535
I1
s(I5
I2
I0
I2
I0
I1
I1
I1
tp536
I1
s(I5
I2
I0
I2
I1
I6
I2
I2
tp537
I1
s(I5
I1
I0
I2
I3
I0
I0
I0
tp538
I5
s(I5
I1
I0
I1
I1
I4
I2
I2
tp539
I4
s(I5
I5
I0
I0
I2
I4
I3
I3
tp540
I8
s(I5
I1
I0
I3
I1
I1
I2
I2
tp541
I6
s(I5
I1
I0
I0
I1
I3
I2
I2
tp542
I11
s(I5
I1
I0
I1
I2
I9
I1
I1
tp543
I6
s(I5
I2
I0
I1
I3
I3
I3
I3
tp544
I2
s(I5
I2
I0
I0
I0
I5
I0
I0
tp545
I1
s(I5
I2
I0
I3
I0
I8
I0
I0
tp546
I1
s(I5
I5
I0
I3
I0
I0
I2
I2
tp547
I4
s(I5
I1
I0
I0
I3
I3
I1
I1
tp548
I4
s(I5
I5
I0
I2
I2
I5
I2
I2
tp549
I9
s(I5
I5
I0
I3
I1
I3
I1
I1
tp550
I15
s(I5
I1
I0
I1
I0
I4
I2
I2
tp551
I5
s(I5
I2
I0
I1
I1
I3
I2
I2
tp552
I2
s(I5
I2
I0
I0
I3
I6
I0
I0
tp553
I2
s(I5
I2
I0
I3
I3
I2
I0
I0
tp554
I1
s(I5
I1
I0
I3
I0
I9
I3
I3
tp555
I3
s(I5
I5
I0
I2
I0
I9
I3
I3
tp556
I11
s(I5
I5
I0
I0
I0
I5
I1
I1
tp557
I7
s(I5
I5
I0
I1
I2
I7
I3
I3
tp558
I8
s(I5
I1
I0
I1
I1
I2
I2
I2
tp559
I4
s(I5
I2
I0
I2
I0
I4
I0
I0
tp560
I1
s(I5
I2
I0
I2
I1
I3
I3
I3
tp561
I1
s(I5
I1
I0
I2
I3
I7
I3
I3
tp562
I6
s(I5
I5
I0
I0
I2
I1
I2
I2
tp563
I6
s(I5
I5
I0
I1
I0
I7
I2
I2
tp564
I5
s(I5
I1
I0
I3
I2
I4
I0
I0
tp565
I2
s(I5
I1
I0
I0
I0
I4
I0
I0
tp566
I4
s(I5
I1
I0
I1
I2
I4
I0
I0
tp567
I12
s(I5
I2
I0
I1
I2
I4
I1
I1
tp568
I1
s(I5
I2
I0
I0
I1
I2
I2
I2
tp569
I1
s(I5
I2
I0
I1
I1
I5
I2
I2
tp570
I2
s(I5
I1
I0
I2
I1
I7
I2
I2
tp571
I6
s(I5
I5
I0
I3
I0
I7
I1
I1
tp572
I12
s(I5
I1
I0
I3
I3
I2
I0
I0
tp573
I3
s(I5
I5
I0
I3
I1
I4
I2
I2
tp574
I17
s(I5
I5
I0
I1
I3
I9
I2
I2
tp575
I24
s(I5
I2
I0
I2
I2
I4
I2
I2
tp576
I1
s(I5
I2
I0
I0
I3
I3
I1
I1
tp577
I1
s(I5
I2
I0
I3
I2
I9
I2
I2
tp578
I1
s(I5
I5
I0
I2
I2
I9
I0
I0
tp579
I2
s(I5
I5
I0
I2
I3
I3
I2
I2
tp580
I10
s(I5
I1
I0
I3
I0
I4
I2
I2
tp581
I3
s(I5
I1
I0
I0
I2
I8
I0
I0
tp582
I5
s(I5
I5
I0
I2
I1
I8
I3
I3
tp583
I16
s(I5
I5
I0
I3
I3
I0
I1
I1
tp584
I4
s(I5
I1
I0
I2
I2
I9
I2
I2
tp585
I3
s(I5
I5
I0
I1
I3
I0
I1
I1
tp586
I7
s(I5
I1
I0
I3
I1
I7
I1
I1
tp587
I3
s(I5
I5
I0
I0
I2
I7
I2
I2
tp588
I6
s(I5
I5
I0
I1
I0
I1
I2
I2
tp589
I5
s(I5
I1
I0
I2
I2
I8
I2
I2
tp590
I3
s(I5
I2
I0
I1
I3
I5
I0
I0
tp591
I1
s(I5
I5
I0
I2
I2
I5
I3
I3
tp592
I18
s(I5
I1
I0
I2
I2
I0
I1
I1
tp593
I4
s(I5
I1
I0
I2
I1
I1
I2
I2
tp594
I6
s(I5
I1
I0
I0
I0
I1
I1
I1
tp595
I4
s(I5
I1
I0
I1
I2
I3
I3
I3
tp596
I2
s(I5
I5
I0
I3
I1
I9
I0
I0
tp597
I5
s(I5
I5
I0
I3
I2
I8
I3
I3
tp598
I12
s(I5
I2
I0
I1
I2
I1
I0
I0
tp599
I4
s(I5
I2
I0
I0
I1
I7
I3
I3
tp600
I2
s(I5
I2
I0
I0
I3
I8
I1
I1
tp601
I1
s(I5
I2
I0
I2
I2
I2
I2
I2
tp602
I1
s(I5
I2
I0
I2
I3
I8
I1
I1
tp603
I1
s(I5
I5
I0
I2
I3
I8
I1
I1
tp604
I3
s(I5
I5
I0
I2
I2
I2
I2
I2
tp605
I9
s(I5
I2
I0
I2
I0
I9
I2
I2
tp606
I2
s(I5
I1
I0
I1
I0
I3
I2
I2
tp607
I5
s(I5
I5
I0
I3
I2
I1
I0
I0
tp608
I3
s(I5
I5
I0
I0
I0
I3
I0
I0
tp609
I7
s(I5
I5
I0
I1
I2
I1
I0
I0
tp610
I10
s(I5
I2
I0
I3
I2
I6
I1
I1
tp611
I1
s(I5
I2
I0
I2
I0
I2
I3
I3
tp612
I1
s(I5
I1
I0
I2
I3
I1
I0
I0
tp613
I5
s(I5
I1
I0
I3
I0
I3
I1
I1
tp614
I3
s(I5
I5
I0
I2
I0
I3
I1
I1
tp615
I12
s(I5
I5
I0
I1
I3
I5
I0
I0
tp616
I16
s(I5
I1
I0
I3
I1
I0
I2
I2
tp617
I6
s(I5
I5
I0
I3
I0
I8
I1
I1
tp618
I12
s(I5
I5
I0
I1
I0
I4
I3
I3
tp619
I3
s(I5
I2
I0
I0
I3
I8
I3
I3
tp620
I1
s(I5
I2
I0
I1
I3
I0
I1
I1
tp621
I1
s(I5
I2
I0
I0
I0
I2
I0
I0
tp622
I1
s(I5
I2
I0
I0
I1
I1
I3
I3
tp623
I2
s(I5
I1
I0
I2
I2
I5
I0
I0
tp624
I3
s(I5
I5
I0
I2
I3
I7
I1
I1
tp625
I3
s(I5
I5
I0
I3
I0
I1
I2
I2
tp626
I4
s(I5
I1
I0
I2
I1
I4
I3
I3
tp627
I4
s(I5
I1
I0
I1
I3
I4
I1
I1
tp628
I2
s(I5
I1
I0
I1
I0
I5
I2
I2
tp629
I5
s(I5
I2
I0
I3
I0
I2
I3
I3
tp630
I2
s(I5
I2
I0
I0
I3
I5
I0
I0
tp631
I2
s(I5
I2
I0
I3
I3
I3
I0
I0
tp632
I1
s(I5
I1
I0
I0
I2
I2
I1
I1
tp633
I4
s(I5
I5
I0
I2
I0
I8
I1
I1
tp634
I12
s(I5
I5
I0
I3
I2
I4
I1
I1
tp635
I13
s(I5
I5
I0
I0
I0
I4
I3
I3
tp636
I8
s(I5
I5
I0
I1
I2
I4
I1
I1
tp637
I23
s(I5
I5
I0
I0
I2
I9
I1
I1
tp638
I7
s(I5
I2
I0
I2
I0
I5
I0
I0
tp639
I1
s(I5
I1
I0
I2
I3
I4
I1
I1
tp640
I1
s(I5
I1
I0
I1
I1
I8
I1
I1
tp641
I14
s(I5
I5
I0
I0
I0
I3
I2
I2
tp642
I3
s(I5
I5
I0
I0
I2
I0
I2
I2
tp643
I6
s(I5
I1
I0
I3
I2
I5
I0
I0
tp644
I2
s(I5
I1
I0
I0
I0
I7
I0
I0
tp645
I4
s(I5
I1
I0
I1
I2
I5
I0
I0
tp646
I12
s(I5
I5
I0
I2
I3
I7
I2
I2
tp647
I10
s(I5
I5
I0
I1
I1
I7
I1
I1
tp648
I18
s(I5
I5
I0
I0
I0
I6
I0
I0
tp649
I7
s(I5
I5
I0
I2
I3
I2
I0
I0
tp650
I5
s(I5
I5
I0
I3
I0
I4
I3
I3
tp651
I11
s(I5
I1
I0
I2
I0
I7
I1
I1
tp652
I9
s(I5
I1
I0
I3
I3
I1
I0
I0
tp653
I3
s(I5
I1
I0
I1
I3
I1
I0
I0
tp654
I9
s(I5
I1
I0
I1
I0
I0
I3
I3
tp655
I2
s(I5
I5
I0
I0
I3
I8
I2
I2
tp656
I7
s(I5
I5
I0
I1
I3
I8
I2
I2
tp657
I24
s(I5
I2
I0
I2
I2
I5
I2
I2
tp658
I1
s(I5
I2
I0
I0
I3
I2
I3
I3
tp659
I1
s(I5
I2
I0
I3
I2
I8
I2
I2
tp660
I1
s(I5
I1
I0
I3
I3
I8
I3
I3
tp661
I5
s(I5
I5
I0
I2
I2
I8
I0
I0
tp662
I2
s(I5
I1
I0
I3
I0
I5
I2
I2
tp663
I3
s(I5
I1
I0
I0
I2
I7
I0
I0
tp664
I5
s(I5
I5
I0
I0
I3
I1
I1
I1
tp665
I5
s(I5
I5
I0
I1
I3
I3
I3
I3
tp666
I4
s(I5
I5
I0
I0
I2
I6
I2
I2
tp667
I6
s(I5
I5
I0
I2
I0
I4
I3
I3
tp668
I11
s(I5
I1
I0
I2
I2
I3
I3
I3
tp669
I5
s(I5
I1
I0
I3
I2
I0
I1
I1
tp670
I2
s(I5
I1
I0
I0
I0
I0
I3
I3
tp671
I10
s(I5
I1
I0
I1
I2
I0
I1
I1
tp672
I6
s(I5
I5
I0
I3
I0
I2
I3
I3
tp673
I11
s(I5
I5
I0
I3
I1
I8
I0
I0
tp674
I5
s(I5
I5
I0
I0
I1
I8
I0
I0
tp675
I8
s(I5
I2
I0
I1
I2
I0
I0
I0
tp676
I4
s(I5
I2
I0
I2
I2
I3
I2
I2
tp677
I1
s(I5
I5
I0
I0
I1
I1
I3
I3
tp678
I15
s(I5
I1
I0
I3
I3
I6
I3
I3
tp679
I5
s(I5
I5
I0
I2
I1
I4
I1
I1
tp680
I20
s(I5
I5
I0
I3
I2
I2
I0
I0
tp681
I3
s(I5
I5
I0
I0
I0
I2
I0
I0
tp682
I7
s(I5
I2
I0
I2
I0
I3
I1
I1
tp683
I1
s(I5
I1
I0
I3
I0
I0
I3
I3
tp684
I4
s(I5
I5
I0
I2
I0
I2
I3
I3
tp685
I11
s(I5
I5
I0
I0
I3
I4
I0
I0
tp686
I12
s(I5
I5
I0
I1
I3
I4
I0
I0
tp687
I16
s(I5
I5
I0
I0
I2
I3
I3
I3
tp688
I8
s(I5
I5
I0
I1
I1
I9
I0
I0
tp689
I15
s(I5
I2
I0
I0
I0
I3
I0
I0
tp690
I1
s(I5
I1
I0
I2
I2
I4
I0
I0
tp691
I3
s(I5
I5
I0
I2
I3
I4
I3
I3
tp692
I14
s(I5
I1
I0
I2
I0
I9
I0
I0
tp693
I1
s(I5
I5
I0
I1
I1
I0
I3
I3
tp694
I4
s(I5
I1
I0
I0
I3
I5
I1
I1
tp695
I4
s(I5
I1
I0
I1
I3
I7
I3
I3
tp696
I3
s(I5
I2
I0
I0
I3
I4
I0
I0
tp697
I2
s(I5
I1
I0
I2
I0
I0
I3
I3
tp698
I2
s(I5
I5
I0
I0
I1
I4
I2
I2
tp699
I5
s(I5
I1
I0
I0
I2
I1
I3
I3
tp700
I4
s(I5
I5
I0
I3
I2
I5
I3
I3
tp701
I12
s(I5
I5
I0
I3
I3
I9
I2
I2
tp702
I18
s(I5
I5
I0
I0
I3
I9
I1
I1
tp703
I5
s(I5
I1
I0
I3
I0
I6
I3
I3
tp704
I4
s(I5
I5
I0
I1
I0
I8
I1
I1
tp705
I18
s(I5
I2
I0
I2
I0
I6
I0
I0
tp706
I1
s(I5
I2
I0
I2
I1
I8
I3
I3
tp707
I1
s(I5
I5
I0
I2
I0
I7
I2
I2
tp708
I3
s(I5
I1
I0
I2
I1
I8
I1
I1
tp709
I13
s(I5
I1
I0
I3
I2
I6
I0
I0
tp710
I2
s(I5
I1
I0
I0
I0
I6
I0
I0
tp711
I4
s(I5
I5
I0
I1
I1
I6
I3
I3
tp712
I4
s(I5
I1
I0
I1
I3
I9
I3
I3
tp713
I3
s(I5
I2
I0
I1
I2
I6
I1
I1
tp714
I1
s(I5
I2
I0
I0
I0
I6
I1
I1
tp715
I2
s(I5
I5
I0
I2
I3
I3
I0
I0
tp716
I5
s(I5
I5
I0
I3
I0
I5
I1
I1
tp717
I12
s(I5
I1
I0
I2
I0
I6
I3
I3
tp718
I2
s(I5
I1
I0
I3
I3
I0
I0
I0
tp719
I3
s(I5
I1
I0
I0
I3
I0
I0
I0
tp720
I1
s(I5
I1
I0
I1
I3
I0
I0
I0
tp721
I8
s(I5
I5
I0
I0
I1
I2
I2
I2
tp722
I4
s(I5
I5
I0
I0
I0
I8
I1
I1
tp723
I7
s(I5
I5
I0
I1
I2
I8
I3
I3
tp724
I8
s(I5
I5
I0
I0
I3
I9
I2
I2
tp725
I7
s(I5
I2
I0
I0
I2
I6
I2
I2
tp726
I2
s(I5
I2
I0
I0
I3
I1
I1
I1
tp727
I1
s(I5
I2
I0
I2
I3
I1
I1
I1
tp728
I1
s(I5
I5
I0
I2
I1
I3
I3
I3
tp729
I16
s(I5
I1
I0
I2
I3
I8
I3
I3
tp730
I6
s(I5
I1
I0
I0
I2
I6
I0
I0
tp731
I5
s(I5
I5
I0
I3
I3
I6
I1
I1
tp732
I4
s(I5
I5
I0
I0
I3
I2
I3
I3
tp733
I13
s(I5
I5
I0
I1
I3
I2
I1
I1
tp734
I7
s(I5
I1
I0
I3
I1
I9
I1
I1
tp735
I3
s(I5
I2
I0
I2
I1
I5
I2
I2
tp736
I1
s(I5
I1
I0
I2
I2
I2
I1
I1
tp737
I4
s(I5
I1
I0
I0
I1
I0
I2
I2
tp738
I11
s(I5
I1
I0
I3
I2
I1
I3
I3
tp739
I4
s(I5
I1
I0
I0
I0
I3
I1
I1
tp740
I4
s(I5
I5
I0
I0
I1
I9
I0
I0
tp741
I8
s(I5
I5
I0
I1
I1
I3
I2
I2
tp742
I18
s(I5
I2
I0
I1
I2
I3
I0
I0
tp743
I4
s(I5
I5
I0
I2
I0
I0
I0
I2
tp744
I1
s(I5
I2
I0
I0
I2
I0
I2
I2
tp745
I2
s(I5
I5
I0
I3
I1
I2
I3
I3
tp746
I9
s(I5
I1
I0
I2
I0
I3
I2
I2
tp747
I2
s(I5
I5
I0
I2
I1
I5
I3
I3
tp748
I16
s(I5
I5
I0
I3
I2
I3
I0
I0
tp749
I3
s(I5
I2
I0
I3
I2
I4
I1
I1
tp750
I1
s(I5
I1
I0
I3
I0
I1
I1
I1
tp751
I3
s(I5
I5
I0
I2
I0
I1
I1
I1
tp752
I12
s(I5
I5
I0
I3
I3
I3
I0
I0
tp753
I11
s(I5
I5
I0
I0
I3
I5
I0
I0
tp754
I12
s(I5
I5
I0
I1
I3
I7
I0
I0
tp755
I16
s(I5
I1
I0
I0
I1
I6
I2
I2
tp756
I11
s(I5
I5
I0
I1
I1
I8
I0
I0
tp757
I15
s(I5
I2
I0
I1
I3
I6
I1
I1
tp758
I1
s(I5
I2
I0
I0
I0
I0
I0
I0
tp759
I1
s(I5
I2
I0
I2
I1
I2
I1
I1
tp760
I2
s(I5
I1
I0
I2
I2
I7
I0
I0
tp761
I3
s(I5
I5
I0
I2
I3
I5
I1
I1
tp762
I3
s(I5
I1
I0
I2
I0
I8
I0
I0
tp763
I1
s(I5
I1
I0
I0
I3
I6
I3
I3
tp764
I4
s(I5
I1
I0
I1
I3
I6
I1
I1
tp765
I2
s(I5
I2
I0
I1
I1
I6
I2
I2
tp766
I2
s(I5
I2
I0
I3
I1
I6
I0
I0
tp767
I3
s(I5
I2
I0
I3
I0
I5
I3
I3
tp768
I2
s(I5
I5
I0
I3
I1
I7
I2
I2
tp769
I17
s(I5
I5
I0
I0
I1
I5
I2
I2
tp770
I5
s(I5
I1
I0
I0
I2
I0
I1
I1
tp771
I4
s(I5
I5
I0
I2
I1
I0
I2
I2
tp772
I14
s(I5
I5
I0
I3
I2
I6
I1
I1
tp773
I13
s(I5
I5
I0
I3
I3
I8
I2
I2
tp774
I18
s(I5
I5
I0
I1
I2
I2
I1
I1
tp775
I23
s(I5
I5
I0
I1
I0
I9
I3
I3
tp776
I3
s(I5
I5
I0
I2
I1
I2
I1
I1
tp777
I20
s(I5
I2
I0
I2
I0
I7
I0
I0
tp778
I1
s(I5
I5
I0
I2
I1
I9
I1
I1
tp779
I19
s(I5
I1
I0
I2
I3
I2
I1
I1
tp780
I1
s(I5
I1
I0
I3
I1
I6
I3
I3
tp781
I4
s(I5
I1
I0
I1
I1
I6
I1
I1
tp782
I14
s(I5
I1
I0
I2
I1
I9
I3
I3
tp783
I4
s(I5
I5
I0
I1
I0
I2
I2
I2
tp784
I5
s(I5
I1
I0
I3
I2
I7
I0
I0
tp785
I2
s(I5
I1
I0
I0
I0
I9
I0
I0
tp786
I4
s(I5
I5
I0
I1
I1
I5
I1
I1
tp787
I18
s(I5
I1
I0
I0
I3
I8
I3
I3
tp788
I4
s(I5
I2
I0
I0
I0
I7
I3
I3
tp789
I1
s(I5
I1
I0
I2
I1
I2
I2
I2
tp790
I6
s(I5
I5
I0
I2
I3
I0
I0
I0
tp791
I5
s(I5
I1
I0
I2
I0
I5
I1
I1
tp792
I9
s(I5
I1
I0
I0
I3
I1
I0
I0
tp793
I1
s(I5
I1
I0
I1
I3
I3
I0
I0
tp794
I9
s(I5
I5
I0
I3
I1
I1
I2
I2
tp795
I17
s(I5
I5
I0
I3
I2
I9
I1
I1
tp796
I13
s(I5
I5
I0
I1
I2
I9
I1
I1
tp797
I23
s(I5
I2
I0
I1
I2
I9
I2
I2
tp798
I1
s(I5
I2
I0
I1
I1
I1
I1
I1
tp799
I1
s(I5
I5
I0
I2
I0
I7
I3
I1
tp800
I1
s(I5
I2
I0
I0
I2
I7
I2
I2
tp801
I2
s(I5
I5
I0
I2
I3
I9
I3
I3
tp802
I14
s(I5
I1
I0
I2
I3
I9
I1
I1
tp803
I1
s(I5
I1
I0
I0
I2
I5
I0
I0
tp804
I5
s(I5
I5
I0
I2
I3
I2
I3
I3
tp805
I14
s(I5
I5
I0
I3
I3
I5
I3
I3
tp806
I16
s(I5
I5
I0
I0
I3
I3
I1
I1
tp807
I5
s(I5
I1
I0
I3
I1
I8
I3
I3
tp808
I4
s(I5
I1
I0
I0
I1
I8
I1
I1
tp809
I6
s(I5
I2
I0
I1
I0
I5
I3
I3
tp810
I1
s(I5
I1
I0
I2
I2
I9
I3
I3
tp811
I5
s(I5
I2
I0
I2
I1
I4
I2
I2
tp812
I1
s(I5
I2
I0
I0
I1
I9
I2
I2
tp813
I1
s(I5
I1
I0
I3
I1
I3
I2
I2
tp814
I6
s(I5
I1
I0
I0
I1
I1
I2
I2
tp815
I11
s(I5
I5
I0
I3
I0
I9
I3
I3
tp816
I11
s(I5
I5
I0
I1
I0
I5
I1
I1
tp817
I18
s(I5
I1
I0
I3
I2
I2
I1
I1
tp818
I2
s(I5
I1
I0
I1
I2
I6
I1
I1
tp819
I6
s(I5
I5
I0
I1
I1
I2
I2
I2
tp820
I18
s(I5
I2
I0
I1
I3
I1
I3
I3
tp821
I2
s(I5
I2
I0
I1
I2
I2
I0
I0
tp822
I4
s(I5
I2
I0
I0
I2
I1
I2
I2
tp823
I2
s(I5
I1
I0
I2
I1
I5
I1
I1
tp824
I13
s(I5
I5
I0
I2
I2
I7
I2
I2
tp825
I9
s(I5
I1
I0
I2
I0
I2
I2
I2
tp826
I2
s(I5
I5
I0
I2
I1
I6
I1
I1
tp827
I20
s(I5
I5
I0
I0
I1
I6
I3
I3
tp828
I15
s(I5
I2
I0
I1
I0
I3
I3
I3
tp829
I1
s(I5
I2
I0
I2
I3
I5
I2
I2
tp830
I1
s(I5
I5
I0
I1
I2
I5
I3
I3
tp831
I8
s(I5
I1
I0
I1
I1
I0
I2
I2
tp832
I4
s(I5
I5
I0
I3
I3
I2
I0
I0
tp833
I11
s(I5
I5
I0
I0
I3
I6
I0
I0
tp834
I12
s(I5
I5
I0
I0
I2
I8
I3
I3
tp835
I8
s(I5
I1
I0
I3
I1
I5
I2
I2
tp836
I6
s(I5
I1
I0
I0
I1
I7
I2
I2
tp837
I11
s(I5
I2
I0
I1
I3
I7
I3
I3
tp838
I2
s(I5
I2
I0
I0
I0
I1
I0
I0
tp839
I1
s(I5
I2
I0
I3
I0
I7
I1
I1
tp840
I2
s(I5
I2
I0
I2
I1
I1
I3
I3
tp841
I1
s(I5
I1
I0
I2
I3
I5
I3
I3
tp842
I6
s(I5
I1
I0
I2
I2
I6
I0
I0
tp843
I3
s(I5
I1
I0
I0
I3
I7
I1
I1
tp844
I4
s(I5
I1
I0
I1
I0
I8
I2
I2
tp845
I5
s(I5
I2
I0
I1
I1
I7
I2
I2
tp846
I2
s(I5
I2
I0
I3
I1
I7
I0
I0
tp847
I3
s(I5
I5
I0
I2
I2
I0
I1
I1
tp848
I19
s(I5
I5
I0
I3
I1
I6
I2
I2
tp849
I17
s(I5
I1
I0
I1
I0
I1
I1
I1
tp850
I14
s(I5
I5
I0
I0
I0
I1
I1
I1
tp851
I7
s(I5
I5
I0
I1
I2
I3
I3
I3
tp852
I8
s(I5
I2
I0
I2
I0
I0
I0
I0
tp853
I1
s(I5
I2
I0
I2
I1
I7
I3
I3
tp854
I1
s(I5
I1
I0
I2
I3
I3
I3
I3
tp855
I6
s(I5
I5
I0
I0
I2
I5
I2
I2
tp856
I6
s(I5
I5
I0
I1
I0
I3
I2
I2
tp857
I5
s(I5
I1
I0
I3
I2
I8
I0
I0
tp858
I2
s(I5
I1
I0
I0
I0
I8
I0
I0
tp859
I4
s(I5
I1
I0
I1
I2
I8
I0
I0
tp860
I12
s(I5
I5
I0
I2
I3
I6
I3
I3
tp861
I14
s(I5
I5
I0
I0
I0
I7
I1
I1
tp862
I7
s(I5
I2
I0
I0
I0
I4
I1
I1
tp863
I2
s(I5
I1
I0
I0
I3
I9
I1
I1
tp864
I4
s(I5
I2
I0
I3
I0
I9
I1
I1
tp865
I2
s(I5
I1
I0
I2
I1
I3
I2
I2
tp866
I6
s(I5
I1
I0
I1
I2
I1
I3
I3
tp867
I2
s(I5
I5
I0
I3
I0
I3
I1
I1
tp868
I12
s(I5
I1
I0
I0
I3
I2
I0
I0
tp869
I1
s(I5
I1
I0
I1
I3
I2
I0
I0
tp870
I9
s(I5
I5
I0
I3
I1
I0
I2
I2
tp871
I17
s(I5
I2
I0
I1
I2
I8
I2
I2
tp872
I1
s(I5
I2
I0
I2
I2
I0
I2
I2
tp873
I1
s(I5
I2
I0
I0
I3
I7
I1
I1
tp874
I1
s(I5
I2
I0
I2
I3
I3
I1
I1
tp875
I1
s(I5
I1
I0
I3
I0
I8
I2
I2
tp876
I3
s(I5
I1
I0
I0
I2
I4
I0
I0
tp877
I5
s(I5
I5
I0
I3
I3
I4
I1
I1
tp878
I4
s(I5
I5
I0
I1
I2
I6
I2
I2
tp879
I15
s(I5
I2
I0
I0
I1
I8
I2
I2
tp880
I1
s(I5
I1
I0
I2
I3
I6
I2
I2
tp881
I1
s(I5
I1
I0
I3
I1
I2
I2
I2
tp882
I6
s(I5
I5
I0
I0
I2
I2
I1
I1
tp883
I7
s(I5
I5
I0
I1
I0
I6
I3
I3
tp884
I3
s(I5
I1
I0
I0
I0
I5
I1
I1
tp885
I4
s(I5
I1
I0
I1
I2
I7
I3
I3
tp886
I2
s(I5
I2
I0
I1
I2
I5
I0
I0
tp887
I4
s(I5
I2
I0
I0
I1
I3
I3
I3
tp888
I2
s(I5
I1
I0
I2
I1
I6
I3
I3
tp889
I4
s(I5
I5
I0
I2
I2
I6
I2
I2
tp890
I9
s(I5
I5
I0
I3
I0
I6
I0
I0
tp891
I14
s(I5
I1
I0
I1
I0
I7
I2
I2
tp892
I5
s(I5
I5
I0
I3
I1
I5
I3
I3
tp893
I9
s(I5
I2
I0
I2
I3
I4
I2
I2
tp894
I1
s(I5
I5
I0
I0
I0
I6
I3
I3
tp895
I8
s(I5
I1
I0
I3
I0
I7
I1
I1
tp896
I3
s(I5
I1
I0
I0
I2
I9
I1
I1
tp897
I4
s(I5
I5
I0
I3
I3
I1
I0
I0
tp898
I11
s(I5
I5
I0
I0
I3
I7
I0
I0
tp899
I12
s(I5
I5
I0
I1
I3
I1
I0
I0
tp900
I16
s(I5
I1
I0
I3
I1
I4
I2
I2
tp901
I6
s(I5
I5
I0
I1
I0
I0
I3
I3
tp902
I3
s(I5
I2
I0
I1
I3
I4
I1
I1
tp903
I1
s(I5
I2
I0
I2
I1
I0
I1
I1
tp904
I2
s(I5
I1
I0
I2
I2
I1
I0
I0
tp905
I3
s(I5
I1
I0
I2
I1
I0
I3
I3
tp906
I4
s(I5
I1
I0
I1
I2
I2
I2
I2
tp907
I2
s(I5
I1
I0
I1
I3
I8
I1
I1
tp908
I2
s(I5
I1
I0
I1
I0
I9
I2
I2
tp909
I5
s(I5
I2
I0
I3
I1
I4
I0
I0
tp910
I3
s(I5
I2
I0
I0
I3
I9
I0
I0
tp911
I2
s(I5
I5
I0
I2
I2
I3
I3
I3
tp912
I18
s(I5
I2
I0
I2
I0
I8
I3
I3
tp913
I1
s(I5
I1
I0
I1
I0
I2
I3
I3
tp914
I2
s(I5
I5
I0
I3
I2
I0
I1
I1
tp915
I13
s(I5
I5
I0
I0
I0
I0
I3
I3
tp916
I8
s(I5
I5
I0
I1
I2
I0
I1
I1
tp917
I23
s(I5
I5
I0
I1
I2
I2
I3
I3
tp918
I8
s(I5
I2
I0
I1
I1
I8
I1
I1
tp919
I1
s(I5
I2
I0
I0
I3
I0
I3
I3
tp920
I1
s(I5
I2
I0
I2
I0
I1
I0
I0
tp921
I1
s(I5
I1
I0
I2
I3
I0
I1
I1
tp922
I1
s(I5
I1
I0
I3
I0
I2
I0
I0
tp923
I5
s(I5
I1
I0
I1
I1
I4
I1
I1
tp924
I14
s(I5
I5
I0
I0
I2
I4
I2
I2
tp925
I6
s(I5
I1
I0
I3
I1
I1
I3
I3
tp926
I4
s(I5
I1
I0
I3
I2
I9
I0
I0
tp927
I2
s(I5
I1
I0
I1
I2
I9
I0
I0
tp928
I12
s(I5
I2
I0
I0
I2
I8
I1
I1
tp929
I1
s(I5
I2
I0
I3
I0
I8
I3
I3
tp930
I2
s(I5
I1
I0
I0
I0
I2
I3
I3
tp931
I10
s(I5
I5
I0
I2
I3
I6
I0
I0
tp932
I5
s(I5
I5
I0
I3
I0
I0
I3
I3
tp933
I11
s(I5
I1
I0
I0
I3
I3
I0
I0
tp934
I1
s(I5
I1
I0
I1
I3
I5
I0
I0
tp935
I9
s(I5
I2
I0
I1
I3
I8
I3
I3
tp936
I2
s(I5
I1
I0
I1
I0
I4
I3
I3
tp937
I2
s(I5
I2
I0
I1
I1
I3
I1
I1
tp938
I1
s(I5
I2
I0
I2
I2
I1
I2
I2
tp939
I1
s(I5
I2
I0
I0
I3
I6
I3
I3
tp940
I1
s(I5
I1
I0
I3
I3
I4
I3
I3
tp941
I5
s(I5
I1
I0
I3
I0
I9
I2
I2
tp942
I3
s(I5
I1
I0
I0
I2
I3
I0
I0
tp943
I5
s(I5
I5
I0
I2
I0
I9
I0
I0
tp944
I5
s(I5
I5
I0
I0
I0
I5
I2
I2
tp945
I3
s(I5
I5
I0
I1
I2
I7
I2
I2
tp946
I15
s(I5
I2
I0
I0
I0
I8
I3
I3
tp947
I1
s(I5
I2
I0
I2
I0
I4
I1
I1
tp948
I1
s(I5
I5
I0
I2
I0
I0
I3
I3
tp949
I11
s(I5
I1
I0
I2
I3
I7
I2
I2
tp950
I1
s(I5
I1
I0
I1
I1
I9
I0
I0
tp951
I8
s(I5
I5
I0
I0
I2
I1
I3
I3
tp952
I8
s(I5
I5
I0
I1
I0
I7
I1
I1
tp953
I18
s(I5
I1
I0
I3
I2
I4
I1
I1
tp954
I2
s(I5
I1
I0
I0
I0
I4
I3
I3
tp955
I10
s(I5
I1
I0
I1
I2
I4
I1
I1
tp956
I6
s(I5
I2
I0
I1
I2
I4
I0
I0
tp957
I4
s(I5
I1
I0
I2
I1
I7
I1
I1
tp958
I13
s(I5
I5
I0
I3
I0
I7
I0
I0
tp959
I14
s(I5
I1
I0
I3
I3
I2
I3
I3
tp960
I5
s(I5
I5
I0
I1
I3
I9
I3
I3
tp961
I4
s(I5
I2
I0
I1
I0
I8
I3
I3
tp962
I1
s(I5
I2
I0
I3
I0
I4
I1
I1
tp963
I2
s(I5
I2
I0
I0
I3
I3
I2
I2
tp964
I1
s(I5
I1
I0
I3
I3
I9
I2
I2
tp965
I6
s(I5
I5
I0
I2
I2
I9
I1
I1
tp966
I19
s(I5
I5
I0
I3
I2
I7
I3
I3
tp967
I12
s(I5
I1
I0
I3
I0
I4
I3
I3
tp968
I4
s(I5
I5
I0
I3
I3
I0
I0
I0
tp969
I11
s(I5
I5
I0
I0
I3
I0
I0
I0
tp970
I12
s(I5
I5
I0
I1
I3
I0
I0
I0
tp971
I16
s(I5
I5
I0
I0
I2
I7
I3
I3
tp972
I8
s(I5
I5
I0
I2
I0
I5
I2
I2
tp973
I3
s(I5
I1
I0
I2
I2
I0
I0
I0
tp974
I3
s(I5
I5
I0
I1
I1
I4
I3
I3
tp975
I4
s(I5
I1
I0
I1
I2
I3
I2
I2
tp976
I2
s(I5
I5
I0
I3
I1
I9
I1
I1
tp977
I15
s(I5
I2
I0
I1
I2
I1
I1
I1
tp978
I1
s(I5
I2
I0
I3
I1
I5
I0
I0
tp979
I3
s(I5
I2
I0
I0
I3
I8
I0
I0
tp980
I2
s(I5
I2
I0
I3
I3
I8
I0
I0
tp981
I1
s(I5
I1
I0
I2
I0
I4
I3
I3
tp982
I2
s(I5
I5
I0
I2
I2
I2
I1
I1
tp983
I19
s(I5
I5
I0
I0
I1
I0
I2
I2
tp984
I5
s(I5
I1
I0
I3
I3
I7
I2
I2
tp985
I6
s(I5
I1
I0
I1
I0
I3
I1
I1
tp986
I14
s(I5
I5
I0
I3
I2
I1
I3
I3
tp987
I12
s(I5
I5
I0
I0
I0
I3
I1
I1
tp988
I7
s(I5
I2
I0
I2
I0
I2
I0
I0
tp989
I1
s(I5
I1
I0
I3
I0
I3
I0
I0
tp990
I5
s(I5
I5
I0
I2
I0
I3
I2
I2
tp991
I3
s(I5
I5
I0
I1
I3
I5
I1
I1
tp992
I7
s(I5
I2
I0
I0
I0
I2
I1
I1
tp993
I2
s(I5
I1
I0
I2
I2
I5
I1
I1
tp994
I4
s(I5
I1
I0
I3
I2
I3
I3
I3
tp995
I4
s(I5
I5
I0
I2
I3
I7
I0
I0
tp996
I5
s(I5
I5
I0
I3
I0
I1
I1
I1
tp997
I12
s(I5
I5
I0
I1
I1
I1
I2
I2
tp998
I18
s(I5
I1
I0
I0
I3
I4
I0
I0
tp999
I1
s(I5
I1
I0
I1
I3
I4
I0
I0
tp1000
I9
s(I5
I2
I0
I1
I3
I9
I1
I1
tp1001
I1
s(I5
I2
I0
I0
I2
I2
I2
I2
tp1002
I2
s(I5
I2
I0
I0
I3
I5
I1
I1
tp1003
I1
s(I5
I1
I0
I2
I0
I1
I2
I2
tp1004
I2
s(I5
I5
I0
I2
I1
I7
I3
I3
tp1005
I16
s(I5
I5
I0
I0
I1
I7
I1
I1
tp1006
I13
s(I5
I1
I0
I0
I2
I2
I0
I0
tp1007
I5
s(I5
I5
I0
I2
I0
I8
I0
I0
tp1008
I5
s(I5
I5
I0
I3
I2
I4
I2
I2
tp1009
I6
s(I5
I5
I0
I0
I0
I4
I2
I2
tp1010
I3
s(I5
I1
I0
I1
I3
I0
I1
I2
tp1011
I1
s(I5
I2
I0
I0
I0
I9
I1
I1
tp1012
I2
s(I5
I2
I0
I3
I2
I3
I1
I1
tp1013
I1
s(I5
I2
I0
I2
I0
I5
I3
I3
tp1014
I1
s(I5
I2
I0
I2
I1
I9
I2
I2
tp1015
I1
s(I5
I1
I0
I0
I1
I4
I2
I2
tp1016
I11
s(I5
I1
I0
I1
I1
I8
I0
I0
tp1017
I8
s(I5
I5
I0
I0
I2
I0
I1
I1
tp1018
I7
s(I5
I1
I0
I3
I2
I5
I3
I3
tp1019
I4
s(I5
I1
I0
I0
I0
I7
I1
I1
tp1020
I4
s(I5
I5
I0
I1
I1
I7
I2
I2
tp1021
I18
s(I5
I5
I0
I0
I2
I5
I1
I0
tp1022
I1
s(I5
I2
I0
I1
I2
I7
I0
I0
tp1023
I4
s(I5
I5
I0
I2
I3
I2
I1
I1
tp1024
I3
s(I5
I5
I0
I3
I0
I4
I0
I0
tp1025
I14
s(I5
I1
I0
I2
I0
I7
I2
I2
tp1026
I2
s(I5
I1
I0
I1
I3
I1
I1
I1
tp1027
I2
s(I5
I5
I0
I0
I0
I9
I0
I0
tp1028
I7
s(I5
I5
I0
I0
I3
I8
I3
I3
tp1029
I13
s(I5
I2
I0
I0
I2
I5
I1
I1
tp1030
I1
s(I5
I2
I0
I3
I0
I7
I3
I3
tp1031
I2
s(I5
I2
I0
I0
I3
I2
I2
I2
tp1032
I1
s(I5
I2
I0
I3
I2
I8
I1
I1
tp1033
I1
s(I5
I1
I0
I3
I3
I8
I2
I2
tp1034
I6
s(I5
I5
I0
I2
I2
I8
I3
I3
tp1035
I18
s(I5
I5
I0
I2
I1
I2
I2
I2
tp1036
I14
s(I5
I1
I0
I3
I0
I5
I1
I1
tp1037
I3
s(I5
I1
I0
I0
I2
I7
I1
I1
tp1038
I4
s(I5
I5
I0
I3
I3
I7
I0
I0
tp1039
I11
s(I5
I5
I0
I0
I3
I1
I0
I0
tp1040
I12
s(I5
I5
I0
I1
I3
I3
I0
I0
tp1041
I16
s(I5
I2
I0
I2
I1
I6
I1
I1
tp1042
I2
s(I5
I5
I0
I2
I0
I4
I2
I2
tp1043
I3
s(I5
I1
I0
I2
I2
I3
I0
I0
tp1044
I3
s(I5
I1
I0
I0
I1
I3
I1
I1
tp1045
I6
s(I5
I5
I0
I3
I1
I8
I3
I3
tp1046
I9
s(I5
I5
I0
I0
I1
I8
I1
I1
tp1047
I13
s(I5
I2
I0
I0
I0
I5
I3
I3
tp1048
I1
s(I5
I2
I0
I3
I1
I2
I0
I0
tp1049
I3
s(I5
I2
I0
I3
I0
I1
I3
I3
tp1050
I2
s(I5
I2
I0
I3
I3
I9
I0
I0
tp1051
I1
s(I5
I5
I0
I3
I1
I3
I2
I2
tp1052
I17
s(I5
I5
I0
I0
I1
I1
I2
I2
tp1053
I5
s(I5
I1
I0
I3
I3
I6
I2
I2
tp1054
I6
s(I5
I5
I0
I2
I1
I4
I2
I2
tp1055
I14
s(I5
I5
I0
I3
I2
I2
I1
I1
tp1056
I13
s(I5
I2
I0
I2
I0
I3
I0
I0
tp1057
I1
s(I5
I1
I0
I3
I0
I0
I0
I0
tp1058
I5
s(I5
I1
I0
I1
I1
I2
I1
I1
tp1059
I14
s(I5
I5
I0
I0
I3
I4
I1
I1
tp1060
I5
s(I5
I5
I0
I1
I3
I4
I3
I3
tp1061
I4
s(I5
I5
I0
I1
I1
I9
I1
I1
tp1062
I18
s(I5
I2
I0
I0
I0
I3
I3
I3
tp1063
I1
s(I5
I2
I0
I2
I1
I3
I0
I0
tp1064
I1
s(I5
I1
I0
I2
I2
I4
I3
I3
tp1065
I5
s(I5
I1
I0
I0
I3
I8
I0
I0
tp1066
I1
s(I5
I5
I0
I2
I3
I4
I0
I0
tp1067
I5
s(I5
I1
I0
I2
I0
I9
I1
I1
tp1068
I9
s(I5
I5
I0
I1
I1
I0
I2
I2
tp1069
I18
s(I5
I1
I0
I0
I3
I5
I0
I0
tp1070
I1
s(I5
I1
I0
I1
I3
I7
I0
I0
tp1071
I9
s(I5
I2
I0
I1
I1
I5
I1
I1
tp1072
I1
s(I5
I2
I0
I0
I2
I3
I2
I2
tp1073
I2
s(I5
I1
I0
I2
I0
I0
I2
I2
tp1074
I2
s(I5
I5
I0
I3
I1
I4
I1
I1
tp1075
I15
s(I5
I5
I0
I0
I1
I4
I3
I3
tp1076
I15
s(I5
I1
I0
I0
I2
I1
I0
I0
tp1077
I5
s(I5
I5
I0
I3
I2
I5
I2
I2
tp1078
I6
s(I5
I5
I0
I3
I3
I9
I3
I3
tp1079
I16
s(I5
I5
I0
I1
I0
I8
I2
I2
tp1080
I5
s(I5
I2
I0
I1
I0
I1
I3
I3
tp1081
I1
s(I5
I2
I0
I2
I3
I7
I2
I2
tp1082
I1
s(I5
I2
I0
I2
I0
I6
I1
I1
tp1083
I1
s(I5
I2
I0
I2
I1
I8
I2
I2
tp1084
I1
s(I5
I1
I0
I0
I2
I8
I3
I3
tp1085
I4
s(I5
I5
I0
I2
I1
I8
I0
I0
tp1086
I3
s(I5
I1
I0
I3
I1
I7
I2
I2
tp1087
I6
s(I5
I1
I0
I0
I1
I5
I2
I2
tp1088
I11
s(I5
I5
I0
I2
I0
I7
I3
I3
tp1089
I10
s(I5
I1
I0
I2
I1
I8
I2
I2
tp1090
I6
s(I5
I5
I0
I1
I0
I1
I1
I1
tp1091
I18
s(I5
I1
I0
I3
I2
I6
I1
I1
tp1092
I2
s(I5
I5
I0
I1
I1
I6
I2
I2
tp1093
I18
s(I5
I2
I0
I1
I3
I5
I3
I3
tp1094
I2
s(I5
I2
I0
I1
I2
I6
I0
I0
tp1095
I4
s(I5
I1
I0
I2
I1
I1
I1
I1
tp1096
I13
s(I5
I5
I0
I2
I3
I3
I3
I3
tp1097
I14
s(I5
I5
I0
I3
I0
I5
I0
I0
tp1098
I14
s(I5
I1
I0
I2
I0
I6
I2
I2
tp1099
I2
s(I5
I1
I0
I0
I3
I0
I1
I1
tp1100
I4
s(I5
I1
I0
I1
I3
I0
I3
I3
tp1101
I3
s(I5
I5
I0
I0
I1
I2
I3
I3
tp1102
I15
s(I5
I5
I0
I0
I0
I8
I0
I0
tp1103
I7
s(I5
I5
I0
I1
I2
I8
I0
I0
tp1104
I10
s(I5
I2
I0
I3
I0
I6
I1
I1
tp1105
I2
s(I5
I5
I0
I2
I3
I8
I2
I2
tp1106
I10
s(I5
I2
I0
I2
I3
I1
I2
I2
tp1107
I1
s(I5
I2
I0
I2
I0
I9
I1
I1
tp1108
I1
s(I5
I5
I0
I2
I1
I3
I2
I2
tp1109
I14
s(I5
I1
I0
I2
I3
I8
I0
I0
tp1110
I5
s(I5
I5
I0
I1
I2
I1
I3
I3
tp1111
I8
s(I5
I1
I0
I0
I2
I6
I3
I3
tp1112
I4
s(I5
I5
I0
I3
I3
I6
I0
I0
tp1113
I11
s(I5
I5
I0
I0
I3
I2
I0
I0
tp1114
I12
s(I5
I5
I0
I1
I3
I2
I0
I0
tp1115
I16
s(I5
I1
I0
I3
I1
I9
I2
I2
tp1116
I6
s(I5
I5
I0
I2
I0
I5
I1
I1
tp1117
I12
s(I5
I2
I0
I2
I1
I5
I3
I3
tp1118
I1
s(I5
I1
I0
I2
I3
I1
I3
I3
tp1119
I6
s(I5
I1
I0
I2
I2
I2
I0
I0
tp1120
I3
s(I5
I1
I0
I3
I1
I0
I1
I1
tp1121
I3
s(I5
I5
I0
I3
I0
I8
I2
I2
tp1122
I4
s(I5
I5
I0
I1
I0
I4
I0
I0
tp1123
I7
s(I5
I5
I0
I1
I1
I3
I3
I3
tp1124
I4
s(I5
I2
I0
I1
I2
I3
I1
I1
tp1125
I1
s(I5
I2
I0
I3
I1
I3
I0
I0
tp1126
I3
s(I5
I1
I0
I2
I1
I4
I0
I0
tp1127
I2
s(I5
I5
I0
I2
I2
I4
I1
I1
tp1128
I19
s(I5
I5
I0
I3
I1
I2
I2
I2
tp1129
I17
s(I5
I1
I0
I2
I0
I3
I3
I3
tp1130
I2
s(I5
I5
I0
I2
I1
I5
I2
I2
tp1131
I14
s(I5
I5
I0
I1
I2
I4
I2
I2
tp1132
I15
s(I5
I1
I0
I3
I0
I1
I0
I0
tp1133
I5
s(I5
I5
I0
I3
I3
I3
I1
I1
tp1134
I4
s(I5
I5
I0
I0
I3
I5
I3
I3
tp1135
I13
s(I5
I5
I0
I1
I3
I7
I1
I1
tp1136
I7
s(I5
I2
I0
I0
I0
I0
I1
I1
tp1137
I2
s(I5
I2
I0
I2
I1
I2
I0
I0
tp1138
I1
s(I5
I1
I0
I2
I3
I4
I2
I2
tp1139
I1
s(I5
I1
I0
I2
I2
I7
I1
I1
tp1140
I4
s(I5
I1
I0
I1
I2
I5
I3
I3
tp1141
I2
s(I5
I1
I0
I0
I3
I6
I0
I0
tp1142
I1
s(I5
I1
I0
I1
I3
I6
I0
I0
tp1143
I9
s(I5
I5
I0
I2
I2
I1
I0
I0
tp1144
I2
s(I5
I5
I0
I3
I1
I7
I3
I3
tp1145
I9
s(I5
I5
I0
I0
I1
I5
I1
I1
tp1146
I13
s(I5
I5
I0
I0
I2
I7
I0
I0
tp1147
I6
s(I5
I1
I0
I0
I2
I0
I0
I0
tp1148
I5
s(I5
I5
I0
I2
I1
I0
I3
I3
tp1149
I16
s(I5
I5
I0
I3
I3
I8
I1
I1
tp1150
I4
s(I5
I5
I0
I1
I2
I2
I2
I2
tp1151
I15
s(I5
I5
I0
I1
I3
I8
I1
I1
tp1152
I7
s(I5
I5
I0
I1
I0
I9
I2
I2
tp1153
I5
s(I5
I2
I0
I2
I3
I6
I2
I2
tp1154
I1
s(I5
I2
I0
I3
I2
I1
I1
I1
tp1155
I1
s(I5
I5
I0
I2
I1
I9
I0
I0
tp1156
I3
s(I5
I1
I0
I2
I3
I2
I2
I2
tp1157
I1
s(I5
I1
I0
I2
I2
I8
I1
I1
tp1158
I4
s(I5
I1
I0
I3
I1
I6
I2
I2
tp1159
I6
s(I5
I1
I0
I1
I1
I6
I0
I0
tp1160
I8
s(I5
I1
I0
I2
I1
I9
I2
I2
tp1161
I6
s(I5
I5
I0
I1
I0
I2
I3
I3
tp1162
I3
s(I5
I1
I0
I0
I0
I9
I1
I1
tp1163
I4
s(I5
I1
I0
I2
I1
I2
I3
I3
tp1164
I4
s(I5
I1
I0
I1
I1
I1
I2
I2
tp1165
I4
s(I5
I5
I0
I2
I3
I0
I1
I1
tp1166
I3
s(I5
I5
I0
I3
I0
I2
I0
I0
tp1167
I14
s(I5
I1
I0
I0
I3
I1
I3
I3
tp1168
I4
s(I5
I1
I0
I1
I3
I3
I1
I1
tp1169
I2
s(I5
I5
I0
I3
I1
I1
I3
I3
tp1170
I9
s(I5
I5
I0
I3
I2
I9
I0
I0
tp1171
I3
s(I5
I5
I0
I1
I2
I9
I0
I0
tp1172
I10
s(I5
I2
I0
I0
I2
I7
I1
I1
tp1173
I1
s(I5
I5
I0
I2
I3
I9
I2
I2
tp1174
I10
s(I5
I2
I0
I2
I3
I0
I2
I2
tp1175
I1
s(I5
I2
I0
I1
I1
I4
I2
I3
tp1176
I1
s(I5
I5
I0
I0
I0
I2
I3
I3
tp1177
I8
s(I5
I1
I0
I0
I2
I5
I1
I1
tp1178
I4
s(I5
I5
I0
I3
I3
I5
I0
I0
tp1179
I11
s(I5
I5
I0
I0
I3
I3
I0
I0
tp1180
I12
s(I5
I1
I0
I3
I1
I8
I2
I2
tp1181
I6
s(I5
I2
I0
I2
I1
I4
I1
I1
tp1182
I2
s(I5
I2
I0
I0
I1
I9
I3
I3
tp1183
I2
s(I5
I1
I0
I3
I1
I3
I3
I3
tp1184
I4
s(I5
I1
I0
I0
I1
I1
I1
I1
tp1185
I6
s(I5
I5
I0
I3
I0
I9
I2
I2
tp1186
I4
s(I5
I5
I0
I0
I2
I3
I0
I0
tp1187
I6
s(I5
I5
I0
I1
I0
I5
I0
I0
tp1188
I7
s(I5
I1
I0
I1
I2
I6
I2
I2
tp1189
I2
s(I5
I2
I0
I3
I1
I0
I0
I0
tp1190
I3
s(I5
I1
I0
I2
I1
I5
I0
I0
tp1191
I2
s(I5
I5
I0
I2
I2
I7
I3
I3
tp1192
I18
s(I5
I1
I0
I1
I0
I6
I3
I3
tp1193
I2
s(I5
I2
I0
I0
I3
I4
I3
I3
tp1194
I1
s(I5
I5
I0
I0
I0
I7
I2
I2
tp1195
I3
s(I5
I5
I0
I1
I2
I5
I2
I2
tp1196
I15
s(I5
I1
I0
I3
I0
I6
I0
I0
tp1197
I5
s(I5
I1
I0
I1
I1
I0
I1
I1
tp1198
I14
s(I5
I5
I0
I3
I3
I2
I3
I3
tp1199
I16
s(I5
I5
I0
I0
I3
I6
I1
I1
tp1200
I5
s(I5
I5
I0
I0
I2
I8
I2
I2
tp1201
I6
s(I5
I1
I0
I3
I1
I5
I3
I3
tp1202
I4
s(I5
I2
I0
I2
I1
I1
I0
I0
tp1203
I1
s(I5
I1
I0
I2
I3
I5
I2
I2
tp1204
I1
s(I5
I1
I0
I0
I0
I6
I3
I3
tp1205
I10
s(I5
I1
I0
I0
I3
I7
I0
I0
tp1206
I1
s(I5
I1
I0
I1
I3
I9
I0
I0
tp1207
I9
s(I5
I1
I0
I1
I0
I8
I3
I3
tp1208
I2
s(I5
I2
I0
I1
I1
I7
I1
I1
tp1209
I1
s(I5
I1
I0
I3
I3
I0
I3
I3
tp1210
I5
s(I5
I5
I0
I2
I2
I0
I0
I0
tp1211
I2
s(I5
I5
I0
I3
I1
I6
I1
I1
tp1212
I15
s(I5
I1
I0
I1
I0
I1
I0
I0
tp1213
I1
s(I5
I5
I0
I0
I0
I1
I2
I2
tp1214
I3
s(I5
I5
I0
I1
I2
I3
I2
I2
tp1215
I15
s(I5
I2
I0
I0
I3
I1
I2
I2
tp1216
I1
s(I5
I2
I0
I2
I0
I0
I1
I1
tp1217
I1
s(I5
I1
I0
I2
I3
I3
I2
I2
tp1218
I1
s(I5
I1
I0
I1
I1
I5
I0
I0
tp1219
I8
s(I5
I5
I0
I0
I2
I5
I3
I3
tp1220
I8
s(I5
I5
I0
I1
I0
I3
I1
I1
tp1221
I18
s(I5
I1
I0
I3
I2
I8
I1
I1
tp1222
I2
s(I5
I1
I0
I0
I0
I8
I3
I3
tp1223
I10
s(I5
I1
I0
I1
I2
I8
I1
I1
tp1224
I6
s(I5
I2
I0
I1
I3
I2
I3
I3
tp1225
I2
s(I5
I1
I0
I3
I0
I9
I2
I0
tp1226
I1
s(I5
I1
I0
I2
I1
I3
I1
I1
tp1227
I13
s(I5
I1
I0
I1
I2
I1
I2
I2
tp1228
I2
s(I5
I5
I0
I3
I0
I3
I0
I0
tp1229
I14
s(I5
I5
I0
I0
I1
I9
I3
I3
tp1230
I15
s(I5
I1
I0
I0
I3
I2
I1
I1
tp1231
I4
s(I5
I2
I0
I3
I0
I0
I1
I1
tp1232
I2
s(I5
I2
I0
I0
I3
I7
I2
I2
tp1233
I1
s(I5
I1
I0
I3
I3
I5
I2
I2
tp1234
I6
s(I5
I5
I0
I3
I2
I3
I3
I3
tp1235
I12
s(I5
I1
I0
I3
I0
I8
I3
I3
tp1236
I4
s(I5
I5
I0
I3
I3
I4
I0
I0
tp1237
I11
s(I5
I5
I0
I1
I2
I6
I3
I3
tp1238
I8
s(I5
I5
I0
I2
I0
I1
I2
I2
tp1239
I3
s(I5
I1
I0
I2
I3
I6
I3
I3
tp1240
I6
s(I5
I1
I0
I3
I1
I2
I1
I1
tp1241
I3
s(I5
I5
I0
I0
I2
I2
I0
I0
tp1242
I6
s(I5
I5
I0
I1
I0
I6
I0
I0
tp1243
I7
s(I5
I5
I0
I1
I1
I8
I3
I3
tp1244
I4
s(I5
I1
I0
I1
I2
I7
I2
I2
tp1245
I2
s(I5
I2
I0
I1
I2
I5
I1
I1
tp1246
I1
s(I5
I2
I0
I3
I1
I1
I0
I0
tp1247
I3
s(I5
I1
I0
I2
I1
I6
I0
I0
tp1248
I2
s(I5
I1
I0
I2
I0
I8
I3
I3
tp1249
I2
s(I5
I5
I0
I2
I2
I6
I1
I1
tp1250
I19
s(I5
I5
I0
I3
I0
I6
I1
I1
tp1251
I12
s(I5
I1
I0
I3
I3
I3
I2
I2
tp1252
I6
s(I5
I1
I0
I1
I0
I7
I1
I1
tp1253
I14
s(I5
I2
I0
I3
I0
I5
I0
I0
tp1254
I1
s(I5
I5
I0
I2
I1
I3
I0
I0
tp1255
I3
s(I5
I5
I0
I3
I2
I6
I2
I2
tp1256
I6
s(I5
I5
I0
I0
I0
I6
I2
I2
tp1257
I3
s(I5
I1
I0
I3
I0
I7
I0
I0
tp1258
I5
s(I5
I5
I0
I3
I3
I1
I1
I1
tp1259
I4
s(I5
I5
I0
I1
I3
I1
I1
I1
tp1260
I7
s(I5
I2
I0
I2
I0
I7
I3
I3
tp1261
I1
s(I5
I2
I0
I2
I1
I0
I0
I0
tp1262
I1
s(I5
I5
I0
I2
I0
I6
I1
I1
tp1263
I12
s(I5
I1
I0
I2
I2
I1
I1
I1
tp1264
I4
s(I5
I1
I0
I3
I2
I7
I3
I3
tp1265
I4
s(I5
I5
I0
I1
I1
I5
I2
I2
tp1266
I18
s(I5
I1
I0
I1
I2
I2
I3
I3
tp1267
I2
s(I5
I1
I0
I1
I3
I8
I0
I0
tp1268
I9
s(I5
I2
I0
I0
I1
I4
I3
I3
tp1269
I2
s(I5
I2
I0
I0
I3
I9
I1
I1
tp1270
I1
s(I5
I2
I0
I2
I3
I9
I1
I1
tp1271
I1
s(I5
I1
I0
I2
I0
I5
I2
I2
tp1272
I2
s(I5
I5
I0
I2
I2
I3
I0
I0
tp1273
I2
s(I5
I5
I0
I0
I1
I3
I1
I1
tp1274
I13
s(I5
I1
I0
I1
I0
I2
I0
I0
tp1275
I1
s(I5
I5
I0
I3
I2
I0
I2
I2
tp1276
I6
s(I5
I5
I0
I0
I0
I0
I2
I2
tp1277
I3
s(I5
I2
I0
I1
I1
I8
I2
I2
tp1278
I2
s(I5
I2
I0
I0
I3
I0
I2
I2
tp1279
I1
s(I5
I2
I0
I3
I2
I7
I1
I1
tp1280
I1
s(I5
I2
I0
I2
I0
I1
I3
I3
tp1281
I1
s(I5
I1
I0
I3
I0
I2
I1
I1
tp1282
I3
s(I5
I1
I0
I0
I1
I8
I2
I2
tp1283
I11
s(I5
I1
I0
I1
I1
I4
I0
I0
tp1284
I8
s(I5
I5
I0
I0
I2
I4
I1
I1
tp1285
I7
s(I5
I1
I0
I3
I2
I9
I3
I3
tp1286
I4
s(I5
I2
I0
I0
I2
I8
I2
I2
tp1287
I2
s(I5
I5
I0
I2
I3
I6
I1
I1
tp1288
I3
s(I5
I5
I0
I3
I0
I0
I0
I0
tp1289
I14
s(I5
I5
I0
I1
I1
I2
I1
I1
tp1290
I18
s(I5
I1
I0
I1
I3
I5
I1
I1
tp1291
I2
s(I5
I2
I0
I1
I3
I8
I0
I0
tp1292
I1
s(I5
I2
I0
I0
I2
I1
I1
I1
tp1293
I1
s(I5
I2
I0
I3
I0
I3
I3
I3
tp1294
I2
s(I5
I2
I0
I0
I3
I6
I2
I2
tp1295
I1
s(I5
I1
I0
I2
I0
I2
I1
I1
tp1296
I9
s(I5
I1
I0
I3
I3
I4
I2
I2
tp1297
I6
s(I5
I5
I0
I2
I1
I6
I2
I2
tp1298
I14
s(I5
I5
I0
I0
I1
I6
I0
I0
tp1299
I8
s(I5
I1
I0
I3
I0
I9
I1
I1
tp1300
I3
s(I5
I1
I0
I0
I2
I3
I1
I1
tp1301
I4
s(I5
I5
I0
I2
I0
I9
I1
I1
tp1302
I12
s(I5
I5
I0
I0
I0
I5
I3
I3
tp1303
I8
s(I5
I2
I0
I0
I0
I8
I0
I0
tp1304
I1
s(I5
I2
I0
I2
I0
I4
I2
I2
tp1305
I2
s(I5
I5
I0
I2
I0
I6
I2
I2
tp1306
I3
s(I5
I5
I0
I2
I0
I0
I2
I2
tp1307
I3
s(I5
I5
I0
I1
I3
I6
I3
I3
tp1308
I4
s(I5
I1
I0
I0
I1
I7
I1
I1
tp1309
I6
s(I5
I1
I0
I1
I1
I9
I1
I1
tp1310
I14
s(I5
I5
I0
I0
I2
I1
I0
I0
tp1311
I6
s(I5
I5
I0
I1
I0
I7
I0
I0
tp1312
I7
s(I5
I5
I0
I2
I1
I7
I0
I0
tp1313
I3
s(I5
I2
I0
I0
I0
I1
I3
I3
tp1314
I1
s(I5
I1
I0
I3
I0
I5
I1
I3
tp1315
I1
s(I5
I1
I0
I2
I2
I6
I3
I3
tp1316
I5
s(I5
I1
I0
I2
I1
I7
I0
I0
tp1317
I2
s(I5
I5
I0
I3
I0
I7
I3
I3
tp1318
I11
s(I5
I1
I0
I3
I3
I2
I2
I2
tp1319
I6
s(I5
I2
I0
I3
I0
I4
I0
I0
tp1320
I1
s(I5
I2
I0
I0
I3
I3
I3
I3
tp1321
I1
s(I5
I1
I0
I3
I3
I9
I3
I3
tp1322
I5
s(I5
I5
I0
I2
I2
I9
I2
I2
tp1323
I9
s(I5
I5
I0
I2
I1
I1
I1
I1
tp1324
I20
s(I5
I5
I0
I3
I2
I7
I2
I2
tp1325
I6
s(I5
I1
I0
I3
I0
I4
I0
I0
tp1326
I5
s(I5
I5
I0
I0
I3
I0
I1
I1
tp1327
I5
s(I5
I5
I0
I1
I3
I0
I3
I3
tp1328
I4
s(I5
I2
I0
I2
I1
I7
I0
I0
tp1329
I1
s(I5
I5
I0
I2
I0
I5
I3
I3
tp1330
I10
s(I5
I1
I0
I2
I2
I0
I3
I3
tp1331
I5
s(I5
I1
I0
I0
I1
I2
I0
I0
tp1332
I1
s(I5
I5
I0
I1
I1
I4
I2
I2
tp1333
I18
s(I5
I1
I0
I0
I0
I1
I3
I3
tp1334
I10
s(I5
I1
I0
I0
I3
I9
I0
I0
tp1335
I1
s(I5
I5
I0
I3
I1
I9
I2
I2
tp1336
I17
s(I5
I2
I0
I1
I2
I1
I2
I2
tp1337
I1
s(I5
I5
I0
I2
I3
I1
I3
I3
tp1338
I14
s(I5
I1
I0
I2
I0
I4
I2
I2
tp1339
I2
s(I5
I1
I0
I1
I3
I2
I3
I3
tp1340
I3
s(I5
I5
I0
I3
I1
I0
I1
I1
tp1341
I15
s(I5
I5
I0
I0
I1
I0
I3
I3
tp1342
I15
s(I5
I1
I0
I3
I3
I7
I3
I3
tp1343
I5
s(I5
I1
I0
I1
I0
I3
I0
I0
tp1344
I1
s(I5
I5
I0
I3
I2
I1
I2
I2
tp1345
I6
s(I5
I2
I0
I1
I2
I8
I1
I1
tp1346
I1
s(I5
I2
I0
I1
I1
I9
I2
I2
tp1347
I2
s(I5
I2
I0
I2
I3
I3
I2
I2
tp1348
I1
s(I5
I2
I0
I2
I0
I2
I1
I1
tp1349
I1
s(I5
I1
I0
I0
I2
I4
I3
I3
tp1350
I4
s(I5
I1
I0
I3
I0
I3
I3
I3
tp1351
I4
s(I5
I1
I0
I0
I1
I9
I2
I2
tp1352
I11
s(I5
I1
I0
I1
I1
I3
I0
I0
tp1353
I8
s(I5
I5
I0
I1
I3
I5
I2
I2
tp1354
I24
s(I5
I2
I0
I0
I2
I9
I2
I2
tp1355
I2
s(I5
I1
I0
I2
I2
I5
I2
I2
tp1356
I3
s(I5
I5
I0
I2
I3
I7
I3
I3
tp1357
I14
s(I5
I5
I0
I3
I0
I1
I0
I0
tp1358
I14
s(I5
I5
I0
I1
I1
I1
I3
I3
tp1359
I4
s(I5
I5
I0
I2
I0
I2
I2
I2
tp1360
I3
s(I5
I1
I0
I0
I3
I4
I1
I1
tp1361
I4
s(I5
I1
I0
I1
I3
I4
I3
I3
tp1362
I3
s(I5
I2
I0
I1
I3
I9
I0
I0
tp1363
I1
s(I5
I2
I0
I3
I0
I2
I1
I1
tp1364
I2
s(I5
I1
I0
I2
I0
I1
I3
I3
tp1365
I2
s(I5
I5
I0
I0
I1
I3
I2
I2
tp1366
I5
s(I5
I5
I0
I2
I1
I7
I2
I2
tp1367
I14
s(I5
I5
I0
I3
I1
I5
I0
I0
tp1368
I5
s(I5
I5
I0
I0
I1
I7
I0
I0
tp1369
I8
s(I5
I1
I0
I0
I2
I2
I3
I3
tp1370
I4
s(I5
I5
I0
I3
I2
I4
I3
I3
tp1371
I12
s(I5
I2
I0
I2
I3
I4
I1
I1
tp1372
I1
s(I5
I2
I0
I0
I0
I9
I0
I0
tp1373
I1
s(I5
I2
I0
I3
I2
I3
I2
I2
tp1374
I1
s(I5
I2
I0
I2
I0
I5
I2
I2
tp1375
I2
s(I5
I2
I0
I2
I1
I9
I3
I3
tp1376
I1
s(I5
I1
I0
I0
I2
I9
I2
I2
tp1377
I7
s(I5
I5
I0
I0
I3
I7
I3
I3
tp1378
I13
s(I5
I1
I0
I3
I1
I4
I1
I1
tp1379
I3
s(I5
I5
I0
I0
I2
I0
I0
I0
tp1380
I6
s(I5
I5
I0
I1
I0
I0
I0
I0
tp1381
I7
s(I5
I5
I0
I1
I1
I7
I3
I3
tp1382
I4
s(I5
I2
I0
I1
I2
I7
I1
I1
tp1383
I1
s(I5
I1
I0
I2
I1
I0
I0
I0
tp1384
I2
s(I5
I5
I0
I2
I3
I2
I2
I2
tp1385
I10
s(I5
I5
I0
I3
I0
I4
I1
I1
tp1386
I12
s(I5
I1
I0
I2
I0
I7
I3
I3
tp1387
I2
s(I5
I1
I0
I1
I3
I1
I2
I2
tp1388
I5
s(I5
I1
I0
I1
I0
I9
I1
I1
tp1389
I14
s(I5
I5
I0
I0
I0
I9
I1
I1
tp1390
I7
s(I5
I2
I0
I3
I0
I7
I0
I0
tp1391
I1
s(I5
I2
I0
I2
I0
I8
I0
I0
tp1392
I1
s(I5
I5
I0
I1
I3
I6
I1
I0
tp1393
I1
s(I5
I5
I0
I2
I2
I8
I2
I2
tp1394
I9
s(I5
I5
I0
I2
I1
I2
I3
I3
tp1395
I16
s(I5
I5
I0
I1
I2
I0
I2
I2
tp1396
I15
s(I5
I1
I0
I3
I0
I5
I0
I0
tp1397
I4
s(I5
I1
I0
I0
I2
I7
I2
I2
tp1398
I7
s(I5
I5
I0
I3
I3
I7
I1
I1
tp1399
I4
s(I5
I5
I0
I0
I3
I1
I3
I3
tp1400
I13
s(I5
I5
I0
I1
I3
I3
I1
I1
tp1401
I7
s(I5
I2
I0
I2
I1
I6
I0
I0
tp1402
I1
s(I5
I1
I0
I2
I3
I0
I2
I2
tp1403
I1
s(I5
I5
I0
I2
I0
I4
I1
I1
tp1404
I12
s(I5
I1
I0
I2
I2
I3
I1
I1
tp1405
I4
s(I5
I1
I0
I3
I1
I1
I0
I0
tp1406
I8
s(I5
I1
I0
I0
I1
I3
I0
I0
tp1407
I1
s(I5
I1
I0
I1
I2
I9
I3
I3
tp1408
I2
s(I5
I1
I0
I3
I2
I0
I3
I3
tp1409
I4
s(I5
I5
I0
I3
I1
I8
I2
I2
tp1410
I17
s(I5
I2
I0
I1
I3
I3
I1
I1
tp1411
I1
s(I5
I2
I0
I1
I2
I0
I2
I2
tp1412
I1
s(I5
I2
I0
I2
I2
I8
I2
I2
tp1413
I1
s(I5
I5
I0
I1
I2
I3
I0
I1
tp1414
I1
s(I5
I1
I0
I0
I3
I3
I3
I3
tp1415
I4
s(I5
I5
I0
I2
I2
I5
I0
I0
tp1416
I2
s(I5
I5
I0
I3
I1
I3
I3
I3
tp1417
I9
s(I5
I5
I0
I0
I1
I1
I1
I1
tp1418
I13
s(I5
I5
I0
I2
I1
I4
I3
I3
tp1419
I16
s(I5
I2
I0
I2
I3
I2
I2
I2
tp1420
I1
s(I5
I5
I0
I2
I0
I5
I1
I2
tp1421
I1
s(I5
I2
I0
I3
I2
I5
I1
I1
tp1422
I1
s(I5
I5
I0
I1
I2
I7
I1
I1
tp1423
I23
s(I5
I1
I0
I3
I0
I0
I1
I1
tp1424
I3
s(I5
I1
I0
I1
I1
I2
I0
I0
tp1425
I8
s(I5
I5
I0
I0
I3
I4
I2
I2
tp1426
I7
s(I5
I5
I0
I1
I3
I4
I2
I2
tp1427
I24
s(I5
I2
I0
I2
I1
I3
I1
I1
tp1428
I2
s(I5
I1
I0
I2
I3
I7
I1
I1
tp1429
I1
s(I5
I1
I0
I2
I2
I4
I2
I2
tp1430
I3
s(I5
I5
I0
I2
I3
I4
I1
I1
tp1431
I3
s(I5
I5
I0
I1
I1
I0
I1
I1
tp1432
I18
s(I5
I1
I0
I0
I3
I5
I3
I3
tp1433
I4
s(I5
I1
I0
I1
I3
I7
I1
I1
tp1434
I2
s(I5
I2
I0
I0
I2
I3
I1
I1
tp1435
I1
s(I5
I1
I0
I1
I2
I4
I2
I2
tp1436
I2
s(I5
I1
I0
I2
I0
I0
I1
I1
tp1437
I9
s(I5
I5
I0
I3
I1
I4
I0
I0
tp1438
I5
s(I5
I5
I0
I0
I1
I4
I0
I0
tp1439
I8
s(I5
I1
I0
I0
I2
I1
I1
I1
tp1440
I4
s(I5
I5
I0
I3
I3
I9
I0
I0
tp1441
I11
s(I5
I5
I0
I1
I3
I9
I0
I0
tp1442
I16
s(I5
I5
I0
I1
I0
I8
I3
I3
tp1443
I3
s(I5
I2
I0
I3
I2
I2
I2
I2
tp1444
I1
s(I5
I2
I0
I2
I1
I8
I1
I1
tp1445
I2
s(I5
I1
I0
I0
I2
I8
I2
I2
tp1446
I7
s(I5
I5
I0
I2
I1
I8
I1
I1
tp1447
I20
s(I5
I5
I0
I3
I3
I0
I3
I3
tp1448
I16
s(I5
I1
I0
I2
I2
I9
I0
I0
tp1449
I3
s(I5
I1
I0
I3
I1
I7
I3
I3
tp1450
I4
s(I5
I1
I0
I0
I1
I5
I1
I1
tp1451
I6
s(I5
I1
I0
I1
I1
I7
I1
I1
tp1452
I14
s(I5
I1
I0
I2
I1
I8
I3
I3
tp1453
I4
s(I5
I5
I0
I1
I0
I1
I0
I0
tp1454
I7
s(I5
I2
I0
I0
I0
I6
I3
I3
tp1455
I1
s(I5
I1
I0
I2
I1
I1
I0
I0
tp1456
I2
s(I5
I1
I0
I1
I2
I3
I1
I1
tp1457
I6
s(I5
I1
I0
I0
I3
I0
I2
I2
tp1458
I5
s(I5
I1
I0
I1
I3
I0
I2
I2
tp1459
I5
s(I5
I5
I0
I3
I2
I8
I1
I1
tp1460
I13
s(I5
I5
I0
I0
I0
I8
I3
I3
tp1461
I8
s(I5
I5
I0
I1
I2
I8
I1
I1
tp1462
I23
s(I5
I2
I0
I1
I1
I0
I1
I1
tp1463
I1
s(I5
I2
I0
I3
I0
I6
I0
I0
tp1464
I1
s(I5
I5
I0
I2
I3
I8
I3
I3
tp1465
I14
s(I5
I2
I0
I2
I0
I9
I0
I0
tp1466
I1
s(I5
I5
I0
I2
I1
I3
I1
I1
tp1467
I20
s(I5
I1
I0
I2
I3
I8
I1
I1
tp1468
I1
s(I5
I5
I0
I1
I2
I1
I2
I2
tp1469
I15
s(I5
I1
I0
I0
I2
I6
I2
I2
tp1470
I7
s(I5
I5
I0
I3
I3
I6
I3
I3
tp1471
I16
s(I5
I5
I0
I0
I3
I2
I1
I1
tp1472
I5
s(I5
I1
I0
I3
I1
I9
I3
I3
tp1473
I4
s(I5
I2
I0
I1
I0
I6
I3
I3
tp1474
I1
s(I5
I2
I0
I2
I1
I5
I0
I0
tp1475
I1
s(I5
I1
I0
I2
I3
I1
I2
I2
tp1476
I1
s(I5
I1
I0
I3
I1
I0
I0
I0
tp1477
I8
s(I5
I1
I0
I0
I1
I0
I0
I0
tp1478
I1
s(I5
I5
I0
I3
I0
I8
I3
I3
tp1479
I11
s(I5
I5
I0
I1
I0
I4
I1
I1
tp1480
I18
s(I5
I2
I0
I1
I3
I0
I3
I3
tp1481
I2
s(I5
I2
I0
I2
I2
I9
I2
I2
tp1482
I1
s(I5
I1
I0
I2
I1
I4
I1
I1
tp1483
I13
s(I5
I5
I0
I2
I2
I4
I0
I0
tp1484
I2
s(I5
I5
I0
I3
I1
I2
I1
I1
tp1485
I15
s(I5
I1
I0
I1
I0
I5
I0
I0
tp1486
I1
s(I5
I2
I0
I0
I3
I5
I2
I2
tp1487
I1
s(I5
I5
I0
I2
I0
I8
I3
I3
tp1488
I11
s(I5
I5
I0
I0
I0
I4
I1
I1
tp1489
I7
s(I5
I5
I0
I1
I2
I4
I3
I3
tp1490
I8
s(I5
I1
I0
I1
I1
I1
I0
I0
tp1491
I8
s(I5
I5
I0
I3
I3
I3
I2
I2
tp1492
I18
s(I5
I5
I0
I0
I3
I5
I2
I2
tp1493
I7
s(I5
I5
I0
I0
I2
I9
I3
I3
tp1494
I8
s(I5
I2
I0
I1
I3
I6
I3
I3
tp1495
I2
s(I5
I2
I0
I2
I1
I2
I3
I3
tp1496
I1
s(I5
I1
I0
I2
I3
I4
I3
I3
tp1497
I6
s(I5
I1
I0
I1
I2
I5
I2
I2
tp1498
I2
s(I5
I1
I0
I0
I3
I6
I1
I1
tp1499
I4
s(I5
I1
I0
I3
I3
I1
I2
I2
tp1500
I6
s(I5
I5
I0
I2
I2
I1
I1
I1
tp1501
I19
s(I5
I5
I0
I3
I1
I7
I0
I0
tp1502
I5
s(I5
I5
I0
I0
I1
I5
I0
I0
tp1503
I8
s(I5
I1
I0
I1
I0
I0
I1
I1
tp1504
I14
s(I5
I5
I0
I3
I3
I8
I0
I0
tp1505
I11
s(I5
I5
I0
I0
I3
I8
I0
I0
tp1506
I12
s(I5
I5
I0
I1
I3
I8
I0
I0
tp1507
I16
s(I5
I2
I0
I0
I3
I2
I1
I1
tp1508
I1
s(I5
I2
I0
I2
I3
I6
I1
I1
tp1509
I1
s(I5
I5
I0
I2
I2
I2
I0
I0
tp1510
I2
s(I5
I5
I0
I2
I1
I9
I3
I3
tp1511
I16
s(I5
I1
I0
I2
I3
I2
I3
I3
tp1512
I6
s(I5
I1
I0
I1
I1
I7
I0
I0
tp1513
I8
s(I5
I1
I0
I3
I1
I6
I1
I1
tp1514
I3
s(I5
I5
I0
I0
I2
I6
I0
I0
tp1515
I6
s(I5
I5
I0
I1
I0
I2
I0
I0
tp1516
I7
s(I5
I1
I0
I1
I0
I6
I2
I2
tp1517
I5
s(I5
I1
I0
I3
I2
I9
I1
I1
tp1518
I2
s(I5
I1
I0
I2
I1
I2
I0
I0
tp1519
I2
s(I5
I1
I0
I0
I0
I0
I1
I1
tp1520
I4
s(I5
I1
I0
I1
I2
I0
I3
I3
tp1521
I2
s(I5
I5
I0
I3
I0
I2
I1
I1
tp1522
I12
s(I5
I5
I0
I0
I1
I8
I2
I2
tp1523
I5
s(I5
I1
I0
I0
I3
I1
I2
I2
tp1524
I5
s(I5
I5
I0
I3
I2
I9
I3
I3
tp1525
I12
s(I5
I2
I0
I0
I1
I6
I3
I3
tp1526
I2
s(I5
I2
I0
I3
I0
I1
I0
I0
tp1527
I1
s(I5
I5
I0
I2
I3
I9
I1
I1
tp1528
I3
s(I5
I5
I0
I3
I2
I2
I2
I2
tp1529
I6
s(I5
I5
I0
I0
I0
I2
I2
I2
tp1530
I3
s(I5
I5
I0
I3
I3
I5
I1
I1
tp1531
I4
s(I5
I2
I0
I2
I0
I3
I3
I3
tp1532
I1
s(I5
I2
I0
I2
I1
I4
I0
I0
tp1533
I1
s(I5
I5
I0
I2
I0
I2
I1
I1
tp1534
I12
s(I5
I1
I0
I3
I1
I3
I0
I0
tp1535
I8
s(I5
I1
I0
I0
I1
I1
I0
I0
tp1536
I1
s(I5
I5
I0
I3
I0
I9
I1
I1
tp1537
I12
s(I5
I5
I0
I0
I2
I3
I1
I1
tp1538
I7
s(I5
I5
I0
I1
I0
I5
I3
I3
tp1539
I3
s(I5
I5
I0
I1
I1
I9
I2
I2
tp1540
I18
s(I5
I1
I0
I1
I2
I6
I3
I3
tp1541
I2
s(I5
I2
I0
I1
I3
I1
I1
I1
tp1542
I1
s(I5
I2
I0
I0
I1
I0
I3
I3
tp1543
I2
s(I5
I1
I0
I2
I1
I5
I3
I3
tp1544
I4
s(I5
I1
I0
I2
I0
I9
I2
I2
tp1545
I2
s(I5
I5
I0
I2
I2
I7
I0
I0
tp1546
I2
s(I5
I1
I0
I1
I0
I6
I0
I0
tp1547
I1
s(I5
I2
I0
I0
I3
I4
I2
I2
tp1548
I1
s(I5
I5
I0
I3
I2
I5
I1
I1
tp1549
I13
s(I5
I5
I0
I0
I0
I7
I3
I3
tp1550
I8
s(I5
I5
I0
I1
I2
I5
I1
I1
tp1551
I23
s(I5
I1
I0
I3
I0
I6
I1
I1
tp1552
I3
s(I5
I1
I0
I1
I1
I0
I0
I0
tp1553
I8
s(I5
I5
I0
I3
I3
I2
I2
I2
tp1554
I18
s(I5
I5
I0
I0
I2
I8
I1
I1
tp1555
I7
s(I5
I2
I0
I2
I0
I6
I2
I2
tp1556
I2
s(I5
I2
I0
I2
I1
I1
I1
I1
tp1557
I2
s(I5
I1
I0
I2
I3
I5
I1
I1
tp1558
I1
s(I5
I5
I0
I2
I0
I7
I0
I0
tp1559
I5
s(I5
I5
I0
I2
I2
I6
I0
I0
tp1560
I2
s(I5
I5
I0
I1
I1
I6
I1
I1
tp1561
I18
s(I5
I1
I0
I1
I3
I9
I1
I1
tp1562
I2
s(I5
I5
I0
I2
I0
I3
I3
I3
tp1563
I11
s(I5
I5
I0
I1
I3
I6
I0
I0
tp1564
I16
s(I5
I2
I0
I0
I1
I5
I2
I2
tp1565
I1
s(I5
I5
I0
I3
I0
I5
I3
I3
tp1566
I11
s(I5
I1
I0
I2
I0
I6
I1
I1
tp1567
I9
s(I5
I1
I0
I3
I3
I0
I2
I2
tp1568
I6
s(I5
I5
I0
I2
I2
I0
I3
I3
tp1569
I18
s(I5
I5
I0
I3
I1
I6
I0
I0
tp1570
I5
s(I5
I5
I0
I0
I1
I2
I0
I0
tp1571
I8
s(I5
I5
I0
I3
I2
I8
I0
I0
tp1572
I3
s(I5
I1
I0
I1
I0
I1
I3
I3
tp1573
I2
s(I5
I5
I0
I0
I0
I1
I3
I3
tp1574
I8
s(I5
I5
I0
I0
I3
I9
I0
I0
tp1575
I12
s(I5
I2
I0
I0
I3
I1
I3
I3
tp1576
I1
s(I5
I2
I0
I2
I0
I0
I2
I2
tp1577
I2
s(I5
I5
I0
I1
I3
I2
I3
I3
tp1578
I4
s(I5
I1
I0
I1
I1
I5
I1
I1
tp1579
I14
s(I5
I5
I0
I0
I2
I5
I0
I0
tp1580
I6
s(I5
I5
I0
I1
I0
I3
I0
I0
tp1581
I7
s(I5
I1
I0
I2
I2
I2
I3
I3
tp1582
I5
s(I5
I2
I0
I3
I0
I9
I3
I3
tp1583
I2
s(I5
I1
I0
I2
I1
I3
I0
I0
tp1584
I2
s(I5
I1
I0
I3
I2
I1
I1
I1
tp1585
I2
s(I5
I1
I0
I0
I0
I3
I3
I3
tp1586
I10
s(I5
I1
I0
I1
I2
I1
I1
I1
tp1587
I6
s(I5
I5
I0
I3
I0
I3
I3
I3
tp1588
I11
s(I5
I5
I0
I0
I1
I9
I2
I2
tp1589
I5
s(I5
I5
I0
I1
I1
I3
I0
I0
tp1590
I15
s(I5
I2
I0
I1
I2
I3
I2
I2
tp1591
I1
s(I5
I2
I0
I1
I1
I2
I1
I1
tp1592
I1
s(I5
I2
I0
I3
I0
I0
I0
I0
tp1593
I1
s(I5
I2
I0
I0
I3
I7
I3
I3
tp1594
I1
s(I5
I1
I0
I2
I0
I3
I0
I0
tp1595
I1
s(I5
I1
I0
I3
I3
I5
I3
I3
tp1596
I5
s(I5
I5
I0
I2
I1
I5
I1
I1
tp1597
I20
s(I5
I5
I0
I3
I2
I3
I2
I2
tp1598
I6
s(I5
I1
I0
I3
I0
I8
I0
I0
tp1599
I5
s(I5
I1
I0
I3
I0
I1
I3
I3
tp1600
I4
s(I5
I5
I0
I2
I0
I1
I3
I3
tp1601
I11
s(I5
I5
I0
I1
I3
I7
I2
I2
tp1602
I24
s(I5
I1
I0
I3
I1
I2
I0
I0
tp1603
I8
s(I5
I1
I0
I0
I1
I6
I0
I0
tp1604
I1
s(I5
I5
I0
I0
I2
I2
I3
I3
tp1605
I8
s(I5
I5
I0
I1
I0
I6
I1
I1
tp1606
I18
s(I5
I5
I0
I1
I1
I8
I2
I2
tp1607
I18
s(I5
I1
I0
I0
I0
I5
I3
I3
tp1608
I10
s(I5
I2
I0
I1
I2
I5
I2
I2
tp1609
I1
s(I5
I1
I0
I2
I2
I7
I2
I2
tp1610
I3
s(I5
I5
I0
I2
I3
I5
I3
I3
tp1611
I14
s(I5
I1
I0
I2
I1
I6
I1
I1
tp1612
I13
s(I5
I1
I0
I2
I0
I8
I2
I2
tp1613
I2
s(I5
I1
I0
I1
I3
I6
I3
I3
tp1614
I3
s(I5
I5
I0
I3
I0
I6
I2
I2
tp1615
I4
s(I5
I1
I0
I3
I3
I3
I3
I3
tp1616
I5
s(I5
I1
I0
I1
I0
I7
I0
I0
tp1617
I1
s(I5
I2
I0
I1
I0
I9
I3
I3
tp1618
I1
s(I5
I2
I0
I3
I0
I5
I1
I1
tp1619
I2
s(I5
I1
I0
I0
I2
I0
I3
I3
tp1620
I4
s(I5
I5
I0
I2
I1
I0
I0
I0
tp1621
I3
s(I5
I5
I0
I3
I2
I6
I3
I3
tp1622
I12
s(I5
I5
I0
I0
I0
I6
I1
I1
tp1623
I7
s(I5
I1
I0
I3
I0
I7
I3
I3
tp1624
I4
s.