(dp0
(I5
I5
I0
I1
I3
I1
I2
I2
tp1
I44
s(I5
I5
I0
I1
I0
I9
I1
I1
tp2
I18
s(I5
I5
I0
I3
I2
I3
I3
I3
tp3
I24
s(I5
I5
I0
I2
I3
I6
I3
I3
tp4
I45
s(I5
I5
I0
I3
I3
I4
I0
I0
tp5
I21
s(I5
I5
I0
I1
I2
I6
I3
I3
tp6
I14
s(I5
I5
I0
I1
I1
I2
I3
I3
tp7
I6
s(I5
I5
I0
I2
I2
I0
I1
I1
tp8
I21
s(I5
I5
I0
I3
I1
I6
I2
I2
tp9
I18
s(I5
I5
I0
I2
I1
I1
I2
I2
tp10
I21
s(I5
I5
I0
I0
I0
I1
I1
I1
tp11
I8
s(I5
I5
I0
I1
I2
I3
I3
I3
tp12
I14
s(I5
I5
I0
I1
I1
I5
I3
I3
tp13
I6
s(I5
I5
I0
I2
I0
I1
I2
I2
tp14
I6
s(I5
I5
I0
I0
I1
I9
I1
I1
tp15
I7
s(I5
I5
I0
I2
I1
I6
I0
I0
tp16
I7
s(I5
I5
I0
I0
I1
I6
I2
I2
tp17
I4
s(I5
I5
I0
I0
I2
I2
I0
I0
tp18
I6
s(I5
I5
I0
I1
I0
I6
I0
I0
tp19
I12
s(I5
I5
I0
I1
I1
I8
I3
I3
tp20
I6
s(I5
I5
I0
I2
I3
I2
I0
I0
tp21
I9
s(I5
I5
I0
I2
I3
I0
I2
I2
tp22
I20
s(I5
I5
I0
I2
I2
I3
I1
I1
tp23
I21
s(I5
I5
I0
I3
I1
I1
I0
I0
tp24
I9
s(I5
I5
I0
I0
I1
I3
I0
I0
tp25
I2
s(I5
I5
I0
I0
I2
I5
I2
I2
tp26
I9
s(I5
I5
I0
I1
I2
I9
I3
I3
tp27
I14
s(I5
I5
I0
I2
I3
I8
I0
I0
tp28
I9
s(I5
I5
I0
I1
I1
I3
I2
I0
tp29
I1
s(I5
I5
I0
I3
I2
I0
I3
I3
tp30
I24
s(I5
I5
I0
I2
I0
I4
I2
I2
tp31
I6
s(I5
I5
I0
I3
I2
I5
I3
I3
tp32
I24
s(I5
I5
I0
I3
I1
I0
I2
I0
tp33
I1
s(I5
I5
I0
I3
I0
I6
I1
I1
tp34
I23
s(I5
I5
I0
I3
I3
I2
I1
I1
tp35
I15
s(I5
I5
I0
I0
I3
I6
I3
I3
tp36
I29
s(I5
I5
I0
I1
I3
I6
I1
I1
tp37
I6
s(I5
I5
I0
I1
I0
I9
I2
I0
tp38
I1
s(I5
I5
I0
I2
I3
I1
I0
I0
tp39
I9
s(I5
I5
I0
I3
I0
I3
I1
I1
tp40
I23
s(I5
I5
I0
I0
I3
I3
I3
I3
tp41
I29
s(I5
I5
I0
I3
I1
I9
I1
I1
tp42
I31
s(I5
I5
I0
I0
I2
I4
I0
I0
tp43
I6
s(I5
I5
I0
I3
I2
I6
I2
I2
tp44
I22
s(I5
I5
I0
I0
I0
I6
I2
I2
tp45
I1
s(I5
I5
I0
I2
I2
I5
I0
I0
tp46
I2
s(I5
I5
I0
I3
I3
I1
I1
I1
tp47
I15
s(I5
I5
I0
I1
I3
I1
I1
I1
tp48
I6
s(I5
I5
I0
I2
I3
I6
I2
I2
tp49
I20
s(I5
I5
I0
I3
I0
I0
I1
I1
tp50
I23
s(I5
I5
I0
I3
I3
I4
I1
I1
tp51
I15
s(I5
I5
I0
I1
I2
I6
I2
I2
tp52
I16
s(I5
I5
I0
I1
I1
I2
I0
I0
tp53
I14
s(I5
I5
I0
I2
I0
I6
I0
I0
tp54
I1
s(I5
I5
I0
I2
I0
I6
I1
I1
tp55
I20
s(I5
I5
I0
I3
I1
I6
I3
I3
tp56
I40
s(I5
I5
I0
I2
I1
I1
I3
I3
tp57
I24
s(I5
I5
I0
I3
I2
I7
I0
I0
tp58
I8
s(I5
I5
I0
I0
I0
I1
I0
I0
tp59
I8
s(I5
I5
I0
I1
I2
I3
I0
I0
tp60
I7
s(I5
I5
I0
I1
I1
I5
I2
I2
tp61
I16
s(I5
I5
I0
I3
I3
I6
I2
I2
tp62
I34
s(I5
I5
I0
I0
I3
I0
I3
I3
tp63
I29
s(I5
I5
I0
I2
I1
I6
I3
I3
tp64
I24
s(I5
I5
I0
I0
I1
I6
I1
I1
tp65
I7
s(I5
I5
I0
I0
I2
I2
I1
I1
tp66
I11
s(I5
I5
I0
I1
I0
I6
I3
I3
tp67
I2
s(I5
I5
I0
I3
I2
I2
I3
I3
tp68
I24
s(I5
I5
I0
I0
I3
I7
I2
I0
tp69
I1
s(I5
I5
I0
I2
I0
I5
I1
I1
tp70
I20
s(I5
I5
I0
I1
I0
I9
I3
I3
tp71
I2
s(I5
I5
I0
I0
I1
I3
I1
I1
tp72
I7
s(I5
I5
I0
I0
I0
I9
I2
I2
tp73
I1
s(I5
I5
I0
I1
I0
I3
I3
I3
tp74
I2
s(I5
I5
I0
I3
I2
I0
I2
I2
tp75
I22
s(I5
I5
I0
I0
I0
I0
I2
I2
tp76
I1
s(I5
I5
I0
I1
I1
I4
I0
I0
tp77
I14
s(I5
I5
I0
I2
I0
I5
I0
I0
tp78
I1
s(I5
I5
I0
I2
I0
I0
I1
I1
tp79
I20
s(I5
I5
I0
I3
I0
I6
I0
I0
tp80
I7
s(I5
I5
I0
I0
I3
I6
I2
I2
tp81
I9
s(I5
I5
I0
I1
I3
I6
I2
I2
tp82
I44
s(I5
I5
I0
I3
I1
I5
I3
I3
tp83
I40
s(I5
I5
I0
I0
I2
I1
I1
I1
tp84
I11
s(I5
I5
I0
I2
I3
I1
I1
I1
tp85
I4
s(I5
I5
I0
I3
I1
I0
I3
I3
tp86
I39
s(I5
I5
I0
I0
I1
I0
I1
I1
tp87
I7
s(I5
I5
I0
I0
I2
I4
I1
I1
tp88
I11
s(I5
I5
I0
I3
I0
I9
I2
I2
tp89
I6
s(I5
I5
I0
I0
I0
I6
I3
I3
tp90
I10
s(I5
I5
I0
I3
I0
I7
I2
I2
tp91
I6
s(I5
I5
I0
I3
I3
I1
I0
I0
tp92
I21
s(I5
I5
I0
I0
I3
I7
I0
I0
tp93
I12
s(I5
I5
I0
I1
I3
I1
I0
I0
tp94
I37
s(I5
I5
I0
I1
I0
I7
I3
I3
tp95
I2
s(I5
I5
I0
I1
I0
I0
I3
I3
tp96
I2
s(I5
I5
I0
I2
I0
I4
I0
I0
tp97
I1
s(I5
I5
I0
I2
I3
I6
I1
I1
tp98
I4
s(I5
I5
I0
I3
I0
I0
I0
I0
tp99
I7
s(I5
I5
I0
I3
I3
I4
I2
I2
tp100
I34
s(I5
I5
I0
I1
I2
I6
I1
I1
tp101
I26
s(I5
I5
I0
I1
I1
I2
I1
I1
tp102
I15
s(I5
I5
I0
I2
I0
I7
I2
I2
tp103
I6
s(I5
I5
I0
I1
I1
I7
I1
I1
tp104
I15
s(I5
I5
I0
I2
I2
I9
I3
I3
tp105
I23
s(I5
I5
I0
I2
I1
I1
I0
I0
tp106
I7
s(I5
I5
I0
I3
I2
I7
I1
I1
tp107
I23
s(I5
I5
I0
I1
I2
I3
I1
I1
tp108
I26
s(I5
I5
I0
I2
I3
I8
I3
I3
tp109
I45
s(I5
I5
I0
I0
I3
I0
I2
I2
tp110
I9
s(I5
I5
I0
I1
I3
I0
I2
I2
tp111
I44
s(I5
I5
I0
I2
I1
I6
I2
I2
tp112
I21
s(I5
I5
I0
I0
I1
I6
I0
I0
tp113
I2
s(I5
I5
I0
I1
I0
I6
I2
I2
tp114
I6
s(I5
I5
I0
I2
I0
I9
I1
I1
tp115
I20
s(I5
I5
I0
I2
I0
I0
I2
I2
tp116
I6
s(I5
I5
I0
I0
I0
I5
I3
I3
tp117
I10
s(I5
I5
I0
I1
I1
I1
I1
I1
tp118
I15
s(I5
I5
I0
I2
I0
I1
I0
I0
tp119
I1
s(I5
I5
I0
I2
I2
I3
I3
I3
tp120
I23
s(I5
I5
I0
I3
I3
I2
I2
I3
tp121
I1
s(I5
I5
I0
I1
I0
I8
I3
I3
tp122
I2
s(I5
I5
I0
I3
I2
I0
I1
I1
tp123
I23
s(I5
I5
I0
I0
I0
I0
I3
I3
tp124
I10
s(I5
I5
I0
I1
I2
I0
I1
I1
tp125
I26
s(I5
I5
I0
I1
I1
I4
I1
I1
tp126
I15
s(I5
I5
I0
I2
I0
I6
I2
I2
tp127
I6
s(I5
I5
I0
I3
I1
I9
I3
I3
tp128
I39
s(I5
I5
I0
I1
I2
I2
I3
I3
tp129
I14
s(I5
I5
I0
I2
I2
I6
I3
I3
tp130
I23
s(I5
I5
I0
I1
I3
I6
I3
I3
tp131
I9
s(I5
I5
I0
I2
I1
I7
I0
I0
tp132
I7
s(I5
I5
I0
I3
I1
I5
I2
I2
tp133
I18
s(I5
I5
I0
I0
I1
I7
I2
I2
tp134
I4
s(I5
I5
I0
I0
I2
I1
I0
I0
tp135
I6
s(I5
I5
I0
I1
I0
I7
I0
I0
tp136
I12
s(I5
I5
I0
I2
I3
I1
I2
I2
tp137
I20
s(I5
I5
I0
I3
I1
I0
I0
I0
tp138
I9
s(I5
I5
I0
I0
I1
I0
I0
I0
tp139
I2
s(I5
I5
I0
I0
I2
I4
I2
I2
tp140
I9
s(I5
I5
I0
I3
I0
I8
I0
I0
tp141
I7
s(I5
I5
I0
I3
I0
I7
I3
I3
tp142
I19
s(I5
I5
I0
I3
I3
I1
I3
I3
tp143
I31
s(I5
I5
I0
I0
I3
I7
I1
I1
tp144
I6
s(I5
I5
I0
I1
I0
I0
I2
I2
tp145
I6
s(I5
I5
I0
I2
I3
I6
I0
I0
tp146
I9
s(I5
I5
I0
I3
I0
I0
I3
I3
tp147
I19
s(I5
I5
I0
I3
I3
I4
I3
I3
tp148
I31
s(I5
I5
I0
I1
I2
I6
I0
I0
tp149
I7
s(I5
I5
I0
I2
I2
I5
I3
I3
tp150
I23
s(I5
I5
I0
I1
I3
I5
I3
I3
tp151
I9
s(I5
I5
I0
I2
I2
I9
I2
I2
tp152
I23
s(I5
I5
I0
I2
I1
I1
I1
I1
tp153
I13
s(I5
I5
I0
I3
I2
I7
I2
I2
tp154
I22
s(I5
I5
I0
I1
I0
I3
I2
I2
tp155
I6
s(I5
I5
I0
I0
I3
I0
I1
I1
tp156
I6
s(I5
I5
I0
I1
I3
I0
I3
I3
tp157
I9
s(I5
I5
I0
I0
I0
I9
I3
I3
tp158
I10
s(I5
I5
I0
I2
I3
I7
I2
I2
tp159
I20
s(I5
I5
I0
I2
I0
I9
I0
I0
tp160
I1
s(I5
I5
I0
I0
I0
I5
I2
I2
tp161
I1
s(I5
I5
I0
I1
I2
I7
I2
I2
tp162
I16
s(I5
I5
I0
I1
I1
I1
I0
I0
tp163
I14
s(I5
I5
I0
I2
I0
I5
I3
I3
tp164
I15
s(I5
I5
I0
I2
I1
I2
I1
I1
tp165
I13
s(I5
I5
I0
I3
I2
I0
I0
I0
tp166
I8
s(I5
I5
I0
I0
I0
I0
I0
I0
tp167
I8
s(I5
I5
I0
I1
I2
I0
I0
I0
tp168
I7
s(I5
I5
I0
I1
I1
I4
I2
I2
tp169
I16
s(I5
I5
I0
I3
I3
I7
I3
I3
tp170
I31
s(I5
I5
I0
I2
I0
I0
I3
I3
tp171
I15
s(I5
I5
I0
I1
I1
I7
I3
I3
tp172
I6
s(I5
I5
I0
I2
I1
I7
I1
I1
tp173
I13
s(I5
I5
I0
I3
I1
I5
I1
I1
tp174
I31
s(I5
I5
I0
I0
I1
I7
I3
I3
tp175
I22
s(I5
I5
I0
I0
I2
I1
I3
I3
tp176
I18
s(I5
I5
I0
I1
I0
I7
I1
I1
tp177
I19
s(I5
I5
I0
I2
I3
I1
I3
I3
tp178
I45
s(I5
I5
I0
I0
I2
I8
I3
I3
tp179
I18
s(I5
I5
I0
I2
I2
I2
I0
I0
tp180
I2
s(I5
I5
I0
I3
I1
I0
I1
I1
tp181
I31
s(I5
I5
I0
I0
I1
I0
I3
I3
tp182
I22
s(I5
I5
I0
I0
I2
I4
I3
I3
tp183
I18
s(I5
I5
I0
I3
I2
I1
I2
I2
tp184
I22
s(I5
I5
I0
I2
I2
I6
I1
I1
tp185
I21
s(I5
I5
I0
I3
I0
I7
I0
I0
tp186
I7
s(I5
I5
I0
I3
I3
I1
I2
I2
tp187
I34
s(I5
I5
I0
I0
I3
I7
I2
I2
tp188
I9
s(I5
I5
I0
I2
I0
I3
I2
I2
tp189
I6
s(I5
I5
I0
I1
I0
I0
I1
I1
tp190
I19
s(I5
I5
I0
I1
I3
I9
I3
I3
tp191
I9
s(I5
I5
I0
I3
I0
I0
I2
I2
tp192
I6
s(I5
I5
I0
I2
I0
I3
I3
I3
tp193
I15
s(I5
I5
I0
I3
I1
I3
I1
I1
tp194
I31
s(I5
I5
I0
I1
I3
I5
I2
I2
tp195
I44
s(I5
I5
I0
I0
I1
I8
I0
I2
tp196
I1
s(I5
I5
I0
I2
I2
I9
I1
I1
tp197
I21
s(I5
I5
I0
I3
I2
I7
I3
I3
tp198
I24
s(I5
I5
I0
I2
I3
I2
I3
I3
tp199
I45
s(I5
I5
I0
I1
I2
I8
I3
I3
tp200
I14
s(I5
I5
I0
I3
I3
I0
I0
I0
tp201
I21
s(I5
I5
I0
I0
I3
I0
I0
I0
tp202
I12
s(I5
I5
I0
I1
I3
I0
I0
I0
tp203
I37
s(I5
I5
I0
I0
I2
I7
I3
I3
tp204
I18
s(I5
I5
I0
I2
I3
I7
I3
I3
tp205
I45
s(I5
I5
I0
I2
I0
I9
I3
I3
tp206
I15
s(I5
I5
I0
I3
I0
I1
I0
I0
tp207
I7
s(I5
I5
I0
I0
I0
I5
I1
I1
tp208
I8
s(I5
I5
I0
I1
I2
I7
I3
I3
tp209
I14
s(I5
I5
I0
I1
I1
I1
I3
I3
tp210
I6
s(I5
I5
I0
I2
I0
I2
I2
I2
tp211
I6
s(I5
I5
I0
I2
I0
I5
I2
I2
tp212
I6
s(I5
I5
I0
I2
I1
I2
I0
I0
tp213
I7
s(I5
I5
I0
I0
I0
I0
I1
I1
tp214
I8
s(I5
I5
I0
I1
I2
I0
I3
I3
tp215
I14
s(I5
I5
I0
I1
I1
I4
I3
I3
tp216
I6
s(I5
I5
I0
I3
I3
I7
I2
I2
tp217
I34
s(I5
I5
I0
I0
I3
I1
I2
I2
tp218
I9
s(I5
I5
I0
I3
I2
I9
I1
I1
tp219
I23
s(I5
I5
I0
I2
I1
I7
I2
I2
tp220
I21
s(I5
I5
I0
I3
I1
I5
I0
I0
tp221
I9
s(I5
I5
I0
I0
I1
I7
I0
I0
tp222
I2
s(I5
I5
I0
I0
I2
I1
I2
I2
tp223
I9
s(I5
I5
I0
I1
I0
I7
I2
I2
tp224
I6
s(I5
I5
I0
I1
I2
I9
I1
I1
tp225
I26
s(I5
I5
I0
I3
I2
I4
I3
I3
tp226
I24
s(I5
I5
I0
I2
I1
I8
I3
I3
tp227
I24
s(I5
I5
I0
I2
I2
I2
I1
I1
tp228
I21
s(I5
I5
I0
I0
I1
I0
I2
I2
tp229
I4
s(I5
I5
I0
I3
I2
I1
I3
I3
tp230
I24
s(I5
I5
I0
I0
I0
I3
I1
I1
tp231
I8
s(I5
I5
I0
I3
I0
I7
I1
I1
tp232
I23
s(I5
I5
I0
I0
I3
I7
I3
I3
tp233
I28
s(I5
I5
I0
I2
I0
I0
I0
I0
tp234
I1
s(I5
I5
I0
I3
I1
I4
I2
I2
tp235
I18
s(I5
I5
I0
I0
I2
I0
I0
I0
tp236
I6
s(I5
I5
I0
I1
I0
I0
I0
I0
tp237
I12
s(I5
I5
I0
I1
I3
I7
I1
I1
tp238
I6
s(I5
I5
I0
I3
I1
I0
I2
I2
tp239
I18
s(I5
I5
I0
I1
I3
I9
I2
I2
tp240
I44
s(I5
I5
I0
I2
I2
I5
I1
I1
tp241
I20
s(I5
I5
I0
I3
I1
I3
I0
I0
tp242
I9
s(I5
I5
I0
I0
I1
I1
I0
I0
tp243
I2
s(I5
I5
I0
I1
I3
I5
I1
I1
tp244
I6
s(I5
I5
I0
I2
I2
I9
I0
I0
tp245
I2
s(I5
I5
I0
I0
I0
I9
I1
I1
tp246
I8
s(I5
I5
I0
I2
I3
I2
I2
I2
tp247
I20
s(I5
I5
I0
I3
I0
I4
I1
I1
tp248
I23
s(I5
I5
I0
I3
I3
I0
I1
I1
tp249
I15
s(I5
I5
I0
I1
I3
I0
I1
I1
tp250
I6
s(I5
I5
I0
I0
I2
I7
I2
I2
tp251
I9
s(I5
I5
I0
I1
I0
I1
I2
I2
tp252
I6
s(I5
I5
I0
I2
I3
I7
I0
I0
tp253
I9
s(I5
I5
I0
I2
I0
I9
I2
I2
tp254
I6
s(I5
I5
I0
I3
I0
I1
I1
I1
tp255
I23
s(I5
I5
I0
I0
I0
I5
I0
I0
tp256
I8
s(I5
I5
I0
I1
I2
I7
I0
I0
tp257
I7
s(I5
I5
I0
I1
I1
I1
I2
I2
tp258
I16
s(I5
I5
I0
I0
I3
I4
I3
I3
tp259
I29
s(I5
I5
I0
I0
I2
I8
I2
I2
tp260
I9
s(I5
I5
I0
I2
I2
I8
I2
I2
tp261
I23
s(I5
I5
I0
I2
I1
I2
I3
I3
tp262
I24
s(I5
I5
I0
I1
I2
I0
I2
I2
tp263
I16
s(I5
I5
I0
I3
I1
I9
I0
I0
tp264
I9
s(I5
I5
I0
I0
I3
I1
I3
I3
tp265
I29
s(I5
I5
I0
I1
I3
I3
I1
I1
tp266
I6
s(I5
I5
I0
I3
I2
I8
I3
I3
tp267
I24
s(I5
I5
I0
I2
I1
I7
I3
I3
tp268
I24
s(I5
I5
I0
I0
I1
I7
I1
I1
tp269
I7
s(I5
I5
I0
I0
I2
I6
I2
I2
tp270
I9
s(I5
I5
I0
I2
I0
I8
I0
I0
tp271
I1
s(I5
I5
I0
I3
I2
I4
I2
I2
tp272
I22
s(I5
I5
I0
I0
I0
I4
I2
I2
tp273
I1
s(I5
I5
I0
I1
I1
I0
I0
I0
tp274
I14
s(I5
I5
I0
I2
I3
I8
I1
I1
tp275
I4
s(I5
I5
I0
I2
I0
I4
I1
I1
tp276
I20
s(I5
I5
I0
I0
I3
I2
I3
I3
tp277
I29
s(I5
I5
I0
I3
I2
I1
I0
I0
tp278
I8
s(I5
I5
I0
I0
I0
I3
I0
I0
tp279
I8
s(I5
I5
I0
I1
I2
I1
I0
I0
tp280
I7
s(I5
I5
I0
I3
I1
I8
I2
I2
tp281
I18
s(I5
I5
I0
I3
I1
I4
I3
I3
tp282
I40
s(I5
I5
I0
I0
I1
I4
I1
I1
tp283
I7
s(I5
I5
I0
I0
I2
I0
I1
I1
tp284
I11
s(I5
I5
I0
I3
I3
I9
I1
I1
tp285
I15
s(I5
I5
I0
I0
I3
I2
I2
I3
tp286
I1
s(I5
I5
I0
I1
I1
I7
I2
I2
tp287
I16
s(I5
I5
I0
I2
I0
I3
I1
I1
tp288
I20
s(I5
I5
I0
I2
I3
I3
I0
I0
tp289
I9
s(I5
I5
I0
I3
I1
I3
I3
I3
tp290
I40
s(I5
I5
I0
I0
I1
I1
I1
I1
tp291
I7
s(I5
I5
I0
I1
I3
I5
I0
I0
tp292
I37
s(I5
I5
I0
I1
I0
I3
I1
I1
tp293
I19
s(I5
I5
I0
I2
I1
I4
I3
I3
tp294
I24
s(I5
I5
I0
I3
I0
I8
I1
I1
tp295
I23
s(I5
I5
I0
I1
I0
I4
I3
I3
tp296
I2
s(I5
I5
I0
I2
I1
I8
I2
I2
tp297
I21
s(I5
I5
I0
I3
I0
I4
I0
I0
tp298
I7
s(I5
I5
I0
I3
I3
I0
I2
I2
tp299
I34
s(I5
I5
I0
I0
I1
I9
I2
I2
tp300
I4
s(I5
I5
I0
I0
I2
I7
I1
I1
tp301
I11
s(I5
I5
I0
I1
I0
I1
I3
I3
tp302
I2
s(I5
I5
I0
I0
I3
I8
I3
I3
tp303
I29
s(I5
I5
I0
I2
I3
I7
I1
I1
tp304
I4
s(I5
I5
I0
I3
I0
I1
I2
I2
tp305
I6
s(I5
I5
I0
I1
I2
I7
I1
I1
tp306
I26
s(I5
I5
I0
I2
I2
I4
I2
I2
tp307
I23
s(I5
I5
I0
I0
I3
I4
I2
I2
tp308
I9
s(I5
I5
I0
I1
I3
I4
I2
I2
tp309
I44
s(I5
I5
I0
I2
I2
I6
I2
I3
tp310
I1
s(I5
I5
I0
I2
I2
I8
I3
I3
tp311
I23
s(I5
I5
I0
I2
I1
I2
I2
I2
tp312
I21
s(I5
I5
I0
I3
I3
I7
I0
I0
tp313
I21
s(I5
I5
I0
I0
I3
I1
I0
I0
tp314
I12
s(I5
I5
I0
I1
I3
I3
I0
I0
tp315
I37
s(I5
I5
I0
I3
I2
I8
I2
I2
tp316
I22
s(I5
I5
I0
I0
I0
I8
I2
I2
tp317
I1
s(I5
I5
I0
I2
I3
I4
I1
I1
tp318
I4
s(I5
I5
I0
I2
I0
I8
I1
I1
tp319
I20
s(I5
I5
I0
I3
I2
I4
I1
I1
tp320
I23
s(I5
I5
I0
I0
I0
I4
I3
I3
tp321
I10
s(I5
I5
I0
I1
I2
I4
I1
I1
tp322
I26
s(I5
I5
I0
I1
I1
I0
I1
I1
tp323
I15
s(I5
I5
I0
I0
I2
I9
I1
I1
tp324
I11
s(I5
I5
I0
I2
I2
I2
I3
I3
tp325
I23
s(I5
I5
I0
I3
I3
I7
I1
I1
tp326
I15
s(I5
I5
I0
I0
I0
I9
I0
I0
tp327
I8
s(I5
I5
I0
I2
I1
I3
I0
I0
tp328
I7
s(I5
I5
I0
I3
I2
I1
I1
I1
tp329
I23
s(I5
I5
I0
I0
I0
I3
I3
I3
tp330
I10
s(I5
I5
I0
I1
I2
I1
I1
I1
tp331
I26
s(I5
I5
I0
I3
I1
I8
I3
I3
tp332
I40
s(I5
I5
I0
I0
I1
I8
I1
I1
tp333
I6
s(I5
I5
I0
I0
I2
I8
I0
I0
tp334
I6
s(I5
I5
I0
I3
I1
I4
I0
I0
tp335
I9
s(I5
I5
I0
I0
I1
I4
I0
I0
tp336
I2
s(I5
I5
I0
I0
I2
I0
I2
I2
tp337
I9
s(I5
I5
I0
I1
I2
I1
I2
I2
tp338
I16
s(I5
I5
I0
I3
I3
I9
I0
I0
tp339
I21
s(I5
I5
I0
I1
I3
I9
I0
I0
tp340
I37
s(I5
I5
I0
I0
I0
I6
I0
I0
tp341
I8
s(I5
I5
I0
I2
I0
I3
I0
I0
tp342
I1
s(I5
I5
I0
I3
I1
I3
I2
I2
tp343
I18
s(I5
I5
I0
I0
I1
I1
I2
I2
tp344
I4
s(I5
I5
I0
I2
I1
I4
I2
I2
tp345
I21
s(I5
I5
I0
I3
I2
I2
I1
I1
tp346
I23
s(I5
I5
I0
I1
I0
I4
I2
I2
tp347
I6
s(I5
I5
I0
I2
I1
I8
I1
I1
tp348
I13
s(I5
I5
I0
I3
I0
I4
I3
I3
tp349
I19
s(I5
I5
I0
I3
I3
I0
I3
I3
tp350
I31
s(I5
I5
I0
I2
I2
I1
I3
I3
tp351
I23
s(I5
I5
I0
I0
I1
I8
I0
I0
tp352
I2
s(I5
I5
I0
I0
I2
I7
I0
I0
tp353
I6
s(I5
I5
I0
I1
I0
I1
I0
I0
tp354
I12
s(I5
I5
I0
I0
I0
I7
I1
I1
tp355
I8
s(I5
I5
I0
I0
I3
I8
I2
I2
tp356
I9
s(I5
I5
I0
I1
I3
I8
I2
I2
tp357
I44
s(I5
I5
I0
I3
I0
I1
I3
I3
tp358
I19
s(I5
I5
I0
I2
I2
I4
I3
I3
tp359
I23
s(I5
I5
I0
I3
I1
I2
I0
I0
tp360
I9
s(I5
I5
I0
I0
I3
I4
I1
I1
tp361
I6
s(I5
I5
I0
I1
I3
I4
I3
I3
tp362
I9
s(I5
I5
I0
I2
I2
I8
I0
I0
tp363
I2
s(I5
I5
I0
I1
I1
I9
I1
I1
tp364
I15
s(I5
I5
I0
I2
I3
I3
I2
I2
tp365
I20
s(I5
I5
I0
I0
I3
I1
I1
I1
tp366
I6
s(I5
I5
I0
I1
I3
I3
I3
I3
tp367
I9
s(I5
I5
I0
I3
I2
I8
I1
I1
tp368
I23
s(I5
I5
I0
I0
I0
I8
I3
I3
tp369
I10
s(I5
I5
I0
I1
I2
I8
I1
I1
tp370
I26
s(I5
I5
I0
I2
I3
I4
I0
I0
tp371
I9
s(I5
I5
I0
I2
I0
I8
I2
I2
tp372
I6
s(I5
I5
I0
I3
I2
I4
I0
I0
tp373
I8
s(I5
I5
I0
I0
I0
I4
I0
I0
tp374
I8
s(I5
I5
I0
I1
I2
I4
I0
I0
tp375
I7
s(I5
I5
I0
I1
I1
I0
I2
I2
tp376
I16
s(I5
I5
I0
I3
I3
I3
I3
I3
tp377
I31
s(I5
I5
I0
I0
I2
I9
I0
I0
tp378
I6
s(I5
I5
I0
I2
I0
I4
I3
I3
tp379
I15
s(I5
I5
I0
I2
I1
I3
I1
I1
tp380
I13
s(I5
I5
I0
I0
I0
I3
I2
I2
tp381
I1
s(I5
I5
I0
I3
I2
I3
I2
I2
tp382
I22
s(I5
I5
I0
I3
I0
I2
I3
I3
tp383
I19
s(I5
I5
I0
I3
I3
I6
I3
I3
tp384
I31
s(I5
I5
I0
I0
I3
I2
I1
I1
tp385
I6
s(I5
I5
I0
I1
I0
I5
I1
I1
tp386
I19
s(I5
I5
I0
I3
I1
I4
I1
I1
tp387
I31
s(I5
I5
I0
I0
I1
I4
I3
I3
tp388
I22
s(I5
I5
I0
I0
I2
I0
I3
I3
tp389
I18
s(I5
I5
I0
I2
I2
I2
I2
I2
tp390
I23
s(I5
I5
I0
I3
I2
I5
I2
I2
tp391
I22
s(I5
I5
I0
I3
I3
I9
I3
I3
tp392
I31
s(I5
I5
I0
I1
I1
I7
I0
I0
tp393
I14
s(I5
I5
I0
I1
I0
I8
I2
I2
tp394
I6
s(I5
I5
I0
I2
I2
I1
I0
I0
tp395
I2
s(I5
I5
I0
I0
I1
I1
I3
I3
tp396
I22
s(I5
I5
I0
I2
I1
I4
I1
I1
tp397
I13
s(I5
I5
I0
I3
I0
I8
I3
I3
tp398
I19
s(I5
I5
I0
I0
I0
I2
I0
I0
tp399
I8
s(I5
I5
I0
I1
I0
I4
I1
I1
tp400
I19
s(I5
I5
I0
I2
I2
I3
I2
I2
tp401
I23
s(I5
I5
I0
I2
I1
I8
I0
I0
tp402
I7
s(I5
I5
I0
I3
I0
I4
I2
I2
tp403
I6
s(I5
I5
I0
I3
I1
I9
I2
I2
tp404
I18
s(I5
I5
I0
I2
I0
I7
I3
I3
tp405
I15
s(I5
I5
I0
I3
I1
I7
I1
I1
tp406
I31
s(I5
I5
I0
I1
I0
I1
I1
I1
tp407
I19
s(I5
I5
I0
I3
I1
I9
I1
I3
tp408
I1
s(I5
I5
I0
I0
I3
I8
I1
I1
tp409
I6
s(I5
I5
I0
I1
I3
I8
I3
I3
tp410
I9
s(I5
I5
I0
I2
I0
I2
I3
I3
tp411
I15
s(I5
I5
I0
I3
I1
I2
I1
I1
tp412
I31
s(I5
I5
I0
I0
I3
I4
I0
I0
tp413
I12
s(I5
I5
I0
I1
I3
I4
I0
I0
tp414
I37
s(I5
I5
I0
I0
I0
I8
I1
I1
tp415
I8
s(I5
I5
I0
I0
I2
I3
I3
I3
tp416
I18
s(I5
I5
I0
I2
I2
I8
I1
I1
tp417
I21
s(I5
I5
I0
I1
I1
I9
I0
I0
tp418
I14
s(I5
I5
I0
I2
I1
I9
I2
I2
tp419
I21
s(I5
I5
I0
I2
I2
I0
I0
I0
tp420
I2
s(I5
I5
I0
I1
I3
I3
I2
I2
tp421
I44
s(I5
I5
I0
I1
I1
I6
I0
I0
tp422
I14
s(I5
I5
I0
I3
I2
I8
I0
I0
tp423
I8
s(I5
I5
I0
I0
I0
I8
I0
I0
tp424
I8
s(I5
I5
I0
I1
I0
I2
I1
I1
tp425
I19
s(I5
I5
I0
I2
I3
I4
I3
I3
tp426
I45
s(I5
I5
I0
I2
I0
I8
I3
I3
tp427
I15
s(I5
I5
I0
I0
I0
I4
I1
I1
tp428
I8
s(I5
I5
I0
I1
I2
I4
I3
I3
tp429
I14
s(I5
I5
I0
I1
I1
I0
I3
I3
tp430
I6
s(I5
I5
I0
I3
I3
I3
I2
I2
tp431
I34
s(I5
I5
I0
I0
I3
I5
I2
I2
tp432
I9
s(I5
I5
I0
I2
I3
I8
I2
I2
tp433
I20
s(I5
I5
I0
I2
I1
I3
I2
I2
tp434
I21
s(I5
I5
I0
I1
I2
I1
I3
I3
tp435
I14
s(I5
I5
I0
I3
I2
I2
I0
I0
tp436
I8
s(I5
I5
I0
I3
I0
I2
I2
I2
tp437
I6
s(I5
I5
I0
I3
I3
I6
I0
I0
tp438
I21
s(I5
I5
I0
I0
I3
I2
I0
I0
tp439
I12
s(I5
I5
I0
I1
I3
I2
I0
I0
tp440
I37
s(I5
I5
I0
I1
I0
I9
I2
I2
tp441
I6
s(I5
I5
I0
I3
I2
I9
I2
I2
tp442
I22
s(I5
I5
I0
I0
I1
I4
I2
I2
tp443
I4
s(I5
I5
I0
I2
I2
I3
I0
I0
tp444
I2
s(I5
I5
I0
I3
I3
I9
I2
I2
tp445
I34
s(I5
I5
I0
I1
I2
I3
I2
I2
tp446
I16
s(I5
I5
I0
I2
I3
I9
I0
I0
tp447
I9
s(I5
I5
I0
I1
I0
I8
I1
I1
tp448
I19
s(I5
I5
I0
I2
I1
I4
I0
I0
tp449
I7
s(I5
I5
I0
I3
I0
I8
I2
I2
tp450
I6
s(I5
I5
I0
I0
I0
I2
I1
I1
tp451
I8
s(I5
I5
I0
I1
I0
I4
I0
I0
tp452
I12
s(I5
I5
I0
I1
I1
I3
I3
I3
tp453
I6
s(I5
I5
I0
I2
I2
I1
I1
I1
tp454
I21
s(I5
I5
I0
I3
I1
I7
I0
I0
tp455
I9
s(I5
I5
I0
I0
I1
I5
I0
I0
tp456
I2
s(I5
I5
I0
I3
I0
I9
I1
I1
tp457
I23
s(I5
I5
I0
I3
I3
I8
I0
I0
tp458
I21
s(I5
I5
I0
I0
I3
I8
I0
I0
tp459
I12
s(I5
I5
I0
I1
I1
I6
I3
I3
tp460
I6
s(I5
I5
I0
I2
I2
I7
I2
I2
tp461
I23
s(I5
I5
I0
I2
I2
I4
I1
I1
tp462
I21
s(I5
I5
I0
I3
I1
I2
I2
I2
tp463
I18
s(I5
I5
I0
I1
I3
I4
I1
I1
tp464
I6
s(I5
I5
I0
I2
I1
I5
I2
I2
tp465
I21
s(I5
I5
I0
I3
I0
I9
I0
I0
tp466
I7
s(I5
I5
I0
I0
I2
I3
I2
I2
tp467
I9
s(I5
I5
I0
I1
I0
I5
I2
I2
tp468
I6
s(I5
I5
I0
I1
I1
I9
I3
I3
tp469
I6
s(I5
I5
I0
I2
I1
I9
I3
I3
tp470
I24
s(I5
I5
I0
I3
I0
I5
I1
I1
tp471
I23
s(I5
I5
I0
I2
I2
I1
I2
I2
tp472
I23
s(I5
I5
I0
I0
I1
I2
I2
I2
tp473
I4
s(I5
I5
I0
I0
I2
I6
I0
I0
tp474
I6
s(I5
I5
I0
I1
I0
I2
I0
I0
tp475
I12
s(I5
I5
I0
I0
I3
I9
I2
I2
tp476
I9
s(I5
I5
I0
I2
I3
I4
I2
I2
tp477
I20
s(I5
I5
I0
I1
I2
I4
I2
I2
tp478
I16
s(I5
I5
I0
I2
I1
I9
I0
I0
tp479
I7
s(I5
I5
I0
I2
I2
I7
I1
I1
tp480
I21
s(I5
I5
I0
I3
I3
I3
I1
I1
tp481
I15
s(I5
I5
I0
I0
I3
I5
I3
I3
tp482
I29
s(I5
I5
I0
I0
I2
I9
I2
I2
tp483
I9
s(I5
I5
I0
I2
I1
I3
I3
I3
tp484
I24
s(I5
I5
I0
I2
I2
I5
I0
I2
tp485
I1
s(I5
I5
I0
I2
I2
I6
I2
I2
tp486
I22
s(I5
I5
I0
I3
I0
I2
I1
I1
tp487
I23
s(I5
I5
I0
I3
I3
I6
I1
I1
tp488
I15
s(I5
I5
I0
I0
I1
I8
I2
I2
tp489
I4
s(I5
I5
I0
I1
I3
I2
I1
I1
tp490
I6
s(I5
I5
I0
I3
I2
I9
I3
I3
tp491
I24
s(I5
I5
I0
I2
I3
I5
I0
I0
tp492
I9
s(I5
I5
I0
I3
I2
I5
I0
I0
tp493
I8
s(I5
I5
I0
I0
I0
I7
I0
I0
tp494
I8
s(I5
I5
I0
I1
I2
I5
I0
I0
tp495
I7
s(I5
I5
I0
I2
I3
I9
I1
I1
tp496
I4
s(I5
I5
I0
I1
I0
I8
I0
I0
tp497
I12
s(I5
I5
I0
I2
I0
I2
I0
I0
tp498
I1
s(I5
I5
I0
I3
I2
I2
I2
I2
tp499
I22
s(I5
I5
I0
I0
I0
I2
I2
I2
tp500
I1
s(I5
I5
I0
I3
I3
I5
I1
I1
tp501
I15
s(I5
I5
I0
I0
I1
I9
I0
I0
tp502
I2
s(I5
I5
I0
I1
I1
I3
I2
I2
tp503
I15
s(I5
I5
I0
I1
I0
I2
I3
I3
tp504
I2
s(I5
I5
I0
I2
I0
I7
I1
I1
tp505
I20
s(I5
I5
I0
I3
I1
I7
I3
I3
tp506
I40
s(I5
I5
I0
I0
I1
I5
I1
I1
tp507
I7
s(I5
I5
I0
I2
I1
I0
I3
I3
tp508
I24
s(I5
I5
I0
I3
I3
I8
I1
I1
tp509
I15
s(I5
I5
I0
I1
I2
I2
I2
I2
tp510
I16
s(I5
I5
I0
I1
I3
I8
I1
I1
tp511
I6
s(I5
I5
I0
I2
I2
I4
I0
I0
tp512
I2
s(I5
I5
I0
I2
I0
I2
I1
I1
tp513
I20
s(I5
I5
I0
I3
I1
I2
I3
I3
tp514
I40
s(I5
I5
I0
I2
I1
I5
I3
I3
tp515
I24
s(I5
I5
I0
I3
I2
I3
I0
I0
tp516
I8
s(I5
I5
I0
I0
I2
I3
I1
I1
tp517
I11
s(I5
I5
I0
I1
I0
I5
I3
I3
tp518
I2
s(I5
I5
I0
I1
I1
I9
I2
I2
tp519
I16
s(I5
I5
I0
I2
I3
I3
I1
I1
tp520
I4
s(I5
I5
I0
I3
I0
I5
I2
I2
tp521
I6
s(I5
I5
I0
I2
I2
I0
I2
I2
tp522
I23
s(I5
I5
I0
I0
I1
I2
I1
I1
tp523
I7
s(I5
I5
I0
I0
I2
I6
I1
I1
tp524
I10
s(I5
I5
I0
I1
I2
I8
I2
I2
tp525
I16
s(I5
I5
I0
I0
I3
I9
I3
I3
tp526
I29
s(I5
I5
I0
I1
I2
I9
I2
I2
tp527
I16
s(I5
I5
I0
I2
I3
I2
I1
I1
tp528
I4
s(I5
I5
I0
I2
I2
I7
I0
I0
tp529
I2
s(I5
I5
I0
I3
I3
I3
I0
I0
tp530
I21
s(I5
I5
I0
I0
I3
I5
I0
I0
tp531
I12
s(I5
I5
I0
I1
I3
I7
I0
I0
tp532
I37
s(I5
I5
I0
I1
I1
I8
I0
I0
tp533
I14
s(I5
I5
I0
I2
I0
I1
I1
I1
tp534
I20
s(I5
I5
I0
I2
I3
I0
I1
I1
tp535
I4
s(I5
I5
I0
I3
I0
I2
I0
I0
tp536
I7
s(I5
I5
I0
I0
I3
I2
I2
I2
tp537
I8
s(I5
I5
I0
I1
I3
I2
I2
I2
tp538
I44
s(I5
I5
I0
I3
I1
I1
I3
I3
tp539
I40
s(I5
I5
I0
I3
I2
I9
I0
I0
tp540
I8
s(I5
I5
I0
I0
I2
I5
I1
I1
tp541
I11
s(I5
I5
I0
I1
I2
I9
I0
I0
tp542
I7
s(I5
I5
I0
I2
I3
I5
I1
I1
tp543
I4
s(I5
I5
I0
I3
I2
I5
I1
I1
tp544
I23
s(I5
I5
I0
I0
I0
I7
I3
I3
tp545
I10
s(I5
I5
I0
I1
I2
I5
I1
I1
tp546
I26
s(I5
I5
I0
I3
I3
I2
I2
I2
tp547
I34
s(I5
I5
I0
I0
I2
I8
I1
I1
tp548
I11
s(I5
I5
I0
I0
I0
I2
I3
I3
tp549
I10
s(I5
I5
I0
I2
I3
I3
I3
I3
tp550
I45
s(I5
I5
I0
I3
I0
I3
I2
I2
tp551
I6
s(I5
I5
I0
I3
I3
I5
I0
I0
tp552
I21
s(I5
I5
I0
I0
I3
I3
I0
I0
tp553
I12
s(I5
I5
I0
I1
I1
I3
I1
I1
tp554
I15
s(I5
I5
I0
I3
I0
I5
I0
I0
tp555
I7
s(I5
I5
I0
I2
I0
I7
I0
I0
tp556
I1
s(I5
I5
I0
I3
I1
I7
I2
I2
tp557
I18
s(I5
I5
I0
I0
I1
I5
I2
I2
tp558
I4
s(I5
I5
I0
I2
I1
I0
I2
I2
tp559
I21
s(I5
I5
I0
I3
I2
I6
I1
I1
tp560
I23
s(I5
I5
I0
I3
I3
I8
I2
I2
tp561
I34
s(I5
I5
I0
I1
I2
I2
I1
I1
tp562
I26
s(I5
I5
I0
I1
I1
I6
I1
I1
tp563
I15
s(I5
I5
I0
I1
I1
I6
I2
I2
tp564
I16
s(I5
I5
I0
I2
I2
I5
I2
I2
tp565
I23
s(I5
I5
I0
I2
I1
I5
I0
I0
tp566
I7
s(I5
I5
I0
I3
I2
I3
I1
I1
tp567
I23
s(I5
I5
I0
I0
I2
I3
I0
I0
tp568
I6
s(I5
I5
I0
I1
I0
I5
I0
I0
tp569
I12
s(I5
I5
I0
I1
I3
I9
I1
I1
tp570
I6
s(I5
I5
I0
I2
I1
I9
I1
I1
tp571
I13
s(I5
I5
I0
I3
I0
I5
I3
I3
tp572
I19
s(I5
I5
I0
I2
I2
I0
I3
I3
tp573
I23
s(I5
I5
I0
I3
I1
I6
I0
I0
tp574
I9
s(I5
I5
I0
I0
I1
I2
I0
I0
tp575
I2
s(I5
I5
I0
I0
I1
I2
I3
I3
tp576
I22
s(I5
I5
I0
I1
I0
I2
I2
I2
tp577
I6
s(I5
I5
I0
I0
I2
I6
I3
I3
tp578
I18
s(I5
I5
I0
I0
I0
I1
I3
I3
tp579
I10
s(I5
I5
I0
I0
I3
I9
I0
I0
tp580
I12
s(I5
I5
I0
I1
I1
I5
I1
I1
tp581
I15
s(I5
I5
I0
I1
I2
I8
I0
I0
tp582
I7
s(I5
I5
I0
I2
I2
I7
I3
I3
tp583
I23
s(I5
I5
I0
I0
I3
I5
I1
I1
tp584
I6
s(I5
I5
I0
I1
I3
I7
I3
I3
tp585
I9
s(I5
I5
I0
I0
I2
I2
I2
I2
tp586
I9
s(I5
I5
I0
I1
I1
I8
I1
I1
tp587
I15
s(I5
I5
I0
I2
I3
I0
I0
I0
tp588
I9
s(I5
I5
I0
I3
I1
I8
I0
I0
tp589
I9
s(I5
I5
I0
I1
I3
I2
I3
I3
tp590
I9
s(I5
I5
I0
I3
I1
I1
I2
I2
tp591
I18
s(I5
I5
I0
I0
I1
I3
I2
I2
tp592
I4
s(I5
I5
I0
I0
I2
I5
I0
I0
tp593
I6
s(I5
I5
I0
I1
I0
I3
I0
I0
tp594
I12
s(I5
I5
I0
I2
I3
I5
I2
I2
tp595
I20
s(I5
I5
I0
I0
I0
I7
I2
I2
tp596
I1
s(I5
I5
I0
I1
I2
I5
I2
I2
tp597
I16
s(I5
I5
I0
I3
I0
I6
I3
I3
tp598
I19
s(I5
I5
I0
I3
I3
I2
I3
I3
tp599
I30
s(I5
I5
I0
I0
I3
I6
I1
I1
tp600
I6
s(I5
I5
I0
I2
I3
I9
I3
I3
tp601
I45
s(I5
I5
I0
I3
I0
I3
I3
I3
tp602
I19
s(I5
I5
I0
I3
I3
I5
I3
I3
tp603
I31
s(I5
I5
I0
I0
I3
I3
I1
I1
tp604
I6
s(I5
I5
I0
I1
I1
I3
I0
I0
tp605
I14
s(I5
I5
I0
I0
I1
I9
I3
I3
tp606
I22
s(I5
I5
I0
I0
I1
I5
I3
I3
tp607
I22
s(I5
I5
I0
I2
I1
I0
I1
I1
tp608
I13
s(I5
I5
I0
I3
I2
I6
I0
I0
tp609
I8
s(I5
I5
I0
I3
I3
I8
I3
I3
tp610
I31
s(I5
I5
I0
I1
I2
I2
I0
I0
tp611
I7
s(I5
I5
I0
I1
I3
I1
I3
I3
tp612
I9
s(I5
I5
I0
I1
I0
I9
I0
I0
tp613
I12
s(I5
I5
I0
I2
I1
I5
I1
I1
tp614
I13
s(I5
I5
I0
I3
I0
I9
I3
I3
tp615
I19
s(I5
I5
I0
I0
I2
I9
I3
I3
tp616
I18
s(I5
I5
I0
I1
I1
I2
I2
I2
tp617
I16
s(I5
I5
I0
I2
I0
I6
I3
I3
tp618
I15
s(I5
I5
I0
I3
I1
I6
I1
I1
tp619
I31
s(I5
I5
I0
I0
I0
I1
I2
I2
tp620
I1
s(I5
I5
I0
I0
I3
I9
I1
I1
tp621
I6
s(I5
I5
I0
I1
I1
I5
I0
I0
tp622
I14
s(I5
I5
I0
I2
I0
I1
I3
I3
tp623
I15
s(I5
I5
I0
I1
I3
I7
I2
I2
tp624
I44
s(I5
I5
I0
I2
I1
I6
I1
I1
tp625
I13
s(I5
I5
I0
I0
I1
I6
I3
I3
tp626
I22
s(I5
I5
I0
I0
I2
I2
I3
I3
tp627
I18
s(I5
I5
I0
I1
I0
I6
I1
I1
tp628
I19
s(I5
I5
I0
I1
I1
I8
I2
I2
tp629
I16
s(I5
I5
I0
I2
I3
I0
I3
I3
tp630
I45
s(I5
I5
I0
I3
I1
I1
I1
I1
tp631
I31
s(I5
I5
I0
I0
I1
I3
I3
I3
tp632
I22
s(I5
I5
I0
I0
I2
I5
I3
I3
tp633
I18
s(I5
I5
I0
I2
I3
I9
I2
I2
tp634
I20
s(I5
I5
I0
I2
I3
I5
I3
I3
tp635
I45
s(I5
I5
I0
I1
I2
I5
I3
I3
tp636
I14
s(I5
I5
I0
I2
I2
I6
I0
I0
tp637
I2
s(I5
I5
I0
I3
I0
I6
I2
I2
tp638
I6
s(I5
I5
I0
I3
I3
I2
I0
I0
tp639
I21
s(I5
I5
I0
I0
I3
I6
I0
I0
tp640
I12
s(I5
I5
I0
I1
I3
I6
I0
I0
tp641
I37
s(I5
I5
I0
I1
I3
I8
I0
I0
tp642
I37
s(I5
I5
I0
I3
I0
I3
I0
I0
tp643
I7
s(I5
I5
I0
I3
I3
I5
I2
I2
tp644
I34
s(I5
I5
I0
I0
I3
I3
I2
I2
tp645
I9
s(I5
I5
I0
I3
I1
I8
I1
I1
tp646
I31
s(I5
I5
I0
I0
I1
I8
I3
I3
tp647
I22
s(I5
I5
I0
I2
I1
I0
I0
I0
tp648
I7
s(I5
I5
I0
I3
I2
I6
I3
I3
tp649
I24
s(I5
I5
I0
I0
I0
I6
I1
I1
tp650
I8
s(I5
I5
I0
I0
I2
I6
I0
I2
tp651
I1
s.